---
triple:          'arm64-apple-darwin'
binary-path:     '/Users/jasonzheng/workspace/projects/playsout_client/playsout_sdk/build/ios/framework/Release/iphoneos/Release-iphoneos/flutter_image_api/flutter_image_api.framework/flutter_image_api'
relocations:
  - { offset: 0x33, size: 0x8, addend: 0x0, symName: _flutter_image_apiVersionString, symObjAddr: 0x0, symBinAddr: 0x1A140, symSize: 0x0 }
  - { offset: 0x67, size: 0x8, addend: 0x0, symName: _flutter_image_apiVersionNumber, symObjAddr: 0x30, symBinAddr: 0x1A170, symSize: 0x0 }
  - { offset: 0xA2, size: 0x8, addend: 0x0, symName: __Z28compute_avgs_and_dirs_4_compRK14partition_infoRK11image_blockP17partition_metrics, symObjAddr: 0x0, symBinAddr: 0x4000, symSize: 0x1C4 }
  - { offset: 0x11C, size: 0x8, addend: 0x0, symName: __Z14compress_blockRK16astcenc_contextiRK11image_blockPhR27compression_working_buffers, symObjAddr: 0x5F80, symBinAddr: 0x9F80, symSize: 0xF14 }
  - { offset: 0x143, size: 0x8, addend: 0x0, symName: __MergedGlobals, symObjAddr: 0xBD300, symBinAddr: 0x301C0, symSize: 0x0 }
  - { offset: 0xF8F, size: 0x8, addend: 0x0, symName: __Z19astcenc_config_init15astcenc_profilejjjfjP14astcenc_config, symObjAddr: 0xAC8C, symBinAddr: 0xEC8C, symSize: 0x400 }
  - { offset: 0xFBA, size: 0x8, addend: 0x0, symName: __ZZ19astcenc_config_init15astcenc_profilejjjfjP14astcenc_configE14preset_configs, symObjAddr: 0xB92F0, symBinAddr: 0x2C1B0, symSize: 0x0 }
  - { offset: 0x126D, size: 0x8, addend: 0x0, symName: __ZL19validate_block_sizejjj, symObjAddr: 0xB08C, symBinAddr: 0xF08C, symSize: 0x64 }
  - { offset: 0x5C1B, size: 0x8, addend: 0x0, symName: __ZNSt3__125__throw_bad_function_callB8ne190102Ev, symObjAddr: 0x148EC, symBinAddr: 0x188EC, symSize: 0x34 }
  - { offset: 0x73B3, size: 0x8, addend: 0x0, symName: __Z40compute_quantized_weights_for_decimationRK15decimation_infoffPKfPfPh12quant_method, symObjAddr: 0xEDBC, symBinAddr: 0x12DBC, symSize: 0x1CC }
  - { offset: 0x73DA, size: 0x8, addend: 0x0, symName: __ZZ40compute_quantized_weights_for_decimationRK15decimation_infoffPKfPfPh12quant_methodE15quant_levels_m1, symObjAddr: 0x17360, symBinAddr: 0x1A968, symSize: 0x0 }
  - { offset: 0x7741, size: 0x8, addend: 0x0, symName: __Z29recompute_ideal_colors_1planeRK11image_blockRK14partition_infoRK15decimation_infoPKhR9endpointsP7vfloat4SD_, symObjAddr: 0xEF88, symBinAddr: 0x12F88, symSize: 0x6A4 }
  - { offset: 0x7764, size: 0x8, addend: 0x0, symName: __Z10encode_ise12quant_methodjPKhPhj, symObjAddr: 0x10660, symBinAddr: 0x14660, symSize: 0x6B0 }
  - { offset: 0x778B, size: 0x8, addend: 0x0, symName: __ZZ10encode_ise12quant_methodjPKhPhjE5tbits, symObjAddr: 0x174AD, symBinAddr: 0x1AAB5, symSize: 0x0 }
  - { offset: 0x77A1, size: 0x8, addend: 0x0, symName: __ZZ10encode_ise12quant_methodjPKhPhjE6tshift, symObjAddr: 0x174B1, symBinAddr: 0x1AAB9, symSize: 0x0 }
  - { offset: 0x77B7, size: 0x8, addend: 0x0, symName: __ZZ10encode_ise12quant_methodjPKhPhjE5tbits_0, symObjAddr: 0x17532, symBinAddr: 0x1AB3A, symSize: 0x0 }
  - { offset: 0x77CD, size: 0x8, addend: 0x0, symName: __ZZ10encode_ise12quant_methodjPKhPhjE6tshift_0, symObjAddr: 0x17534, symBinAddr: 0x1AB3C, symSize: 0x0 }
  - { offset: 0x7D91, size: 0x8, addend: 0x0, symName: __Z10decode_ise12quant_methodjPKhPhj, symObjAddr: 0x10D10, symBinAddr: 0x14D10, symSize: 0x2C4 }
  - { offset: 0x7DB5, size: 0x8, addend: 0x0, symName: __Z10decode_ise12quant_methodjPKhPhj, symObjAddr: 0x10D10, symBinAddr: 0x14D10, symSize: 0x2C4 }
  - { offset: 0x7DDC, size: 0x8, addend: 0x0, symName: __ZZ10decode_ise12quant_methodjPKhPhjE12bits_to_read, symObjAddr: 0x17536, symBinAddr: 0x1AB3E, symSize: 0x0 }
  - { offset: 0x7DF2, size: 0x8, addend: 0x0, symName: __ZZ10decode_ise12quant_methodjPKhPhjE11block_shift, symObjAddr: 0x1753B, symBinAddr: 0x1AB43, symSize: 0x0 }
  - { offset: 0x7E15, size: 0x8, addend: 0x0, symName: __ZZ10decode_ise12quant_methodjPKhPhjE13hcounter_incr, symObjAddr: 0x17540, symBinAddr: 0x1AB48, symSize: 0x0 }
  - { offset: 0x7E2B, size: 0x8, addend: 0x0, symName: __ZZ10decode_ise12quant_methodjPKhPhjE12bits_to_read_0, symObjAddr: 0x17545, symBinAddr: 0x1AB4D, symSize: 0x0 }
  - { offset: 0x7E41, size: 0x8, addend: 0x0, symName: __ZZ10decode_ise12quant_methodjPKhPhjE11block_shift_0, symObjAddr: 0x17548, symBinAddr: 0x1AB50, symSize: 0x0 }
  - { offset: 0x7E64, size: 0x8, addend: 0x0, symName: __ZZ10decode_ise12quant_methodjPKhPhjE13hcounter_incr_0, symObjAddr: 0x1754B, symBinAddr: 0x1AB53, symSize: 0x0 }
  - { offset: 0x8151, size: 0x8, addend: 0x0, symName: _color_unquant_to_uquant_tables, symObjAddr: 0x17BCE, symBinAddr: 0x1B1D6, symSize: 0x0 }
  - { offset: 0x817D, size: 0x8, addend: 0x0, symName: _color_uquant_to_scrambled_pquant_tables, symObjAddr: 0x19DCE, symBinAddr: 0x1D3D6, symSize: 0x0 }
  - { offset: 0x81A9, size: 0x8, addend: 0x0, symName: _color_scrambled_pquant_to_uquant_tables, symObjAddr: 0x20DE0, symBinAddr: 0x2C0E0, symSize: 0x0 }
  - { offset: 0x81D2, size: 0x8, addend: 0x0, symName: _quant_mode_table, symObjAddr: 0x1B376, symBinAddr: 0x1E97E, symSize: 0x0 }
  - { offset: 0x8206, size: 0x8, addend: 0x0, symName: __Z20symbolic_to_physicalRK21block_size_descriptorRK25symbolic_compressed_blockPh, symObjAddr: 0x6E94, symBinAddr: 0xAE94, symSize: 0x50C }
  - { offset: 0x89E8, size: 0x8, addend: 0x0, symName: __Z20physical_to_symbolicRK21block_size_descriptorPKhR25symbolic_compressed_block, symObjAddr: 0xC384, symBinAddr: 0x10384, symSize: 0x610 }
  - { offset: 0x8A0F, size: 0x8, addend: 0x0, symName: __ZZ20physical_to_symbolicRK21block_size_descriptorPKhR25symbolic_compressed_blockE14color_bits_arr, symObjAddr: 0x1B878, symBinAddr: 0x1EE80, symSize: 0x0 }
  - { offset: 0x96CC, size: 0x8, addend: 0x0, symName: __ZN4astc9rand_initEPy, symObjAddr: 0x10FD4, symBinAddr: 0x14FD4, symSize: 0x10 }
  - { offset: 0x96F5, size: 0x8, addend: 0x0, symName: __ZN4astc4randEPy, symObjAddr: 0x10FE4, symBinAddr: 0x14FE4, symSize: 0x24 }
  - { offset: 0x97F8, size: 0x8, addend: 0x0, symName: _quant_and_xfer_tables, symObjAddr: 0x1B88C, symBinAddr: 0x1EE94, symSize: 0x0 }
  - { offset: 0x98AD, size: 0x8, addend: 0x0, symName: __ZL16quantize_hdr_rgb7vfloat4S_Ph12quant_method, symObjAddr: 0x4C44, symBinAddr: 0x8C44, symSize: 0x64C }
  - { offset: 0x98D4, size: 0x8, addend: 0x0, symName: __ZZL16quantize_hdr_rgb7vfloat4S_Ph12quant_methodE9mode_bits, symObjAddr: 0x1C3B0, symBinAddr: 0x1F9B8, symSize: 0x0 }
  - { offset: 0x98EA, size: 0x8, addend: 0x0, symName: __ZZL16quantize_hdr_rgb7vfloat4S_Ph12quant_methodE12mode_cutoffs, symObjAddr: 0x1C430, symBinAddr: 0x1FA38, symSize: 0x0 }
  - { offset: 0x9900, size: 0x8, addend: 0x0, symName: __ZZL16quantize_hdr_rgb7vfloat4S_Ph12quant_methodE11mode_scales, symObjAddr: 0x1C4B0, symBinAddr: 0x1FAB8, symSize: 0x0 }
  - { offset: 0x9916, size: 0x8, addend: 0x0, symName: __ZZL16quantize_hdr_rgb7vfloat4S_Ph12quant_methodE12mode_rscales, symObjAddr: 0x1C4D0, symBinAddr: 0x1FAD8, symSize: 0x0 }
  - { offset: 0xA055, size: 0x8, addend: 0x0, symName: __ZL14hdr_rgb_unpackPKhR5vint4S2_, symObjAddr: 0x5CA4, symBinAddr: 0x9CA4, symSize: 0x2DC }
  - { offset: 0xA07C, size: 0x8, addend: 0x0, symName: __ZZL14hdr_rgb_unpackPKhR5vint4S2_E9dbits_tab, symObjAddr: 0x1C514, symBinAddr: 0x1FB1C, symSize: 0x0 }
  - { offset: 0xA3EA, size: 0x8, addend: 0x0, symName: __ZL44compress_symbolic_block_for_partition_1planeRK14astcenc_configRK21block_size_descriptorRK11image_blockbfjjR25symbolic_compressed_blockR27compression_working_buffersi, symObjAddr: 0x73A0, symBinAddr: 0xB3A0, symSize: 0x8C8 }
  - { offset: 0xA415, size: 0x8, addend: 0x0, symName: __ZZL44compress_symbolic_block_for_partition_1planeRK14astcenc_configRK21block_size_descriptorRK11image_blockbfjjR25symbolic_compressed_blockR27compression_working_buffersiE29free_bits_for_partition_count, symObjAddr: 0x1C534, symBinAddr: 0x1FB3C, symSize: 0x0 }
  - { offset: 0xAC6F, size: 0x8, addend: 0x0, symName: __ZL19preset_configs_high, symObjAddr: 0x16E50, symBinAddr: 0x1A458, symSize: 0x0 }
  - { offset: 0xAC89, size: 0x8, addend: 0x0, symName: __ZL18preset_configs_mid, symObjAddr: 0x17000, symBinAddr: 0x1A608, symSize: 0x0 }
  - { offset: 0xACA3, size: 0x8, addend: 0x0, symName: __ZL18preset_configs_low, symObjAddr: 0x171B0, symBinAddr: 0x1A7B8, symSize: 0x0 }
  - { offset: 0xACFD, size: 0x8, addend: 0x0, symName: __ZL9ise_sizes, symObjAddr: 0x17390, symBinAddr: 0x1A998, symSize: 0x0 }
  - { offset: 0xAD7E, size: 0x8, addend: 0x0, symName: __ZL10btq_counts, symObjAddr: 0x173A5, symBinAddr: 0x1A9AD, symSize: 0x0 }
  - { offset: 0xAE0D, size: 0x8, addend: 0x0, symName: __ZL16integer_of_trits, symObjAddr: 0x173BA, symBinAddr: 0x1A9C2, symSize: 0x0 }
  - { offset: 0xAE4C, size: 0x8, addend: 0x0, symName: __ZL17integer_of_quints, symObjAddr: 0x174B5, symBinAddr: 0x1AABD, symSize: 0x0 }
  - { offset: 0xAE7F, size: 0x8, addend: 0x0, symName: __ZL16trits_of_integer, symObjAddr: 0x1754E, symBinAddr: 0x1AB56, symSize: 0x0 }
  - { offset: 0xAEAE, size: 0x8, addend: 0x0, symName: __ZL17quints_of_integer, symObjAddr: 0x17A4E, symBinAddr: 0x1B056, symSize: 0x0 }
  - { offset: 0xAEDB, size: 0x8, addend: 0x0, symName: __ZL13block_pcd_4x4, symObjAddr: 0x20EE8, symBinAddr: 0x28130, symSize: 0x0 }
  - { offset: 0xAF6B, size: 0x8, addend: 0x0, symName: __ZL20percentile_arr_4x4_0, symObjAddr: 0x1C578, symBinAddr: 0x1FB80, symSize: 0x0 }
  - { offset: 0xAF92, size: 0x8, addend: 0x0, symName: __ZL20percentile_arr_4x4_1, symObjAddr: 0x1C5F2, symBinAddr: 0x1FBFA, symSize: 0x0 }
  - { offset: 0xAFB9, size: 0x8, addend: 0x0, symName: __ZL13block_pcd_5x4, symObjAddr: 0x20F08, symBinAddr: 0x28150, symSize: 0x0 }
  - { offset: 0xAFD3, size: 0x8, addend: 0x0, symName: __ZL20percentile_arr_5x4_0, symObjAddr: 0x1C69A, symBinAddr: 0x1FCA2, symSize: 0x0 }
  - { offset: 0xAFFA, size: 0x8, addend: 0x0, symName: __ZL20percentile_arr_5x4_1, symObjAddr: 0x1C750, symBinAddr: 0x1FD58, symSize: 0x0 }
  - { offset: 0xB021, size: 0x8, addend: 0x0, symName: __ZL13block_pcd_5x5, symObjAddr: 0x20F28, symBinAddr: 0x28170, symSize: 0x0 }
  - { offset: 0xB03B, size: 0x8, addend: 0x0, symName: __ZL20percentile_arr_5x5_0, symObjAddr: 0x1C820, symBinAddr: 0x1FE28, symSize: 0x0 }
  - { offset: 0xB062, size: 0x8, addend: 0x0, symName: __ZL20percentile_arr_5x5_1, symObjAddr: 0x1C922, symBinAddr: 0x1FF2A, symSize: 0x0 }
  - { offset: 0xB089, size: 0x8, addend: 0x0, symName: __ZL13block_pcd_6x5, symObjAddr: 0x20F48, symBinAddr: 0x28190, symSize: 0x0 }
  - { offset: 0xB0A3, size: 0x8, addend: 0x0, symName: __ZL20percentile_arr_6x5_0, symObjAddr: 0x1CA1E, symBinAddr: 0x20026, symSize: 0x0 }
  - { offset: 0xB0CA, size: 0x8, addend: 0x0, symName: __ZL20percentile_arr_6x5_1, symObjAddr: 0x1CB68, symBinAddr: 0x20170, symSize: 0x0 }
  - { offset: 0xB0F2, size: 0x8, addend: 0x0, symName: __ZL13block_pcd_6x6, symObjAddr: 0x20F68, symBinAddr: 0x281B0, symSize: 0x0 }
  - { offset: 0xB10C, size: 0x8, addend: 0x0, symName: __ZL20percentile_arr_6x6_0, symObjAddr: 0x1CC8A, symBinAddr: 0x20292, symSize: 0x0 }
  - { offset: 0xB134, size: 0x8, addend: 0x0, symName: __ZL20percentile_arr_6x6_1, symObjAddr: 0x1CE26, symBinAddr: 0x2042E, symSize: 0x0 }
  - { offset: 0xB15C, size: 0x8, addend: 0x0, symName: __ZL13block_pcd_8x5, symObjAddr: 0x20F88, symBinAddr: 0x281D0, symSize: 0x0 }
  - { offset: 0xB177, size: 0x8, addend: 0x0, symName: __ZL20percentile_arr_8x5_0, symObjAddr: 0x1CF6E, symBinAddr: 0x20576, symSize: 0x0 }
  - { offset: 0xB19F, size: 0x8, addend: 0x0, symName: __ZL20percentile_arr_8x5_1, symObjAddr: 0x1D132, symBinAddr: 0x2073A, symSize: 0x0 }
  - { offset: 0xB1C7, size: 0x8, addend: 0x0, symName: __ZL13block_pcd_8x6, symObjAddr: 0x20FA8, symBinAddr: 0x281F0, symSize: 0x0 }
  - { offset: 0xB1E2, size: 0x8, addend: 0x0, symName: __ZL20percentile_arr_8x6_0, symObjAddr: 0x1D280, symBinAddr: 0x20888, symSize: 0x0 }
  - { offset: 0xB20C, size: 0x8, addend: 0x0, symName: __ZL20percentile_arr_8x6_1, symObjAddr: 0x1D4A2, symBinAddr: 0x20AAA, symSize: 0x0 }
  - { offset: 0xB234, size: 0x8, addend: 0x0, symName: __ZL13block_pcd_8x8, symObjAddr: 0x20FC8, symBinAddr: 0x28210, symSize: 0x0 }
  - { offset: 0xB24F, size: 0x8, addend: 0x0, symName: __ZL20percentile_arr_8x8_0, symObjAddr: 0x1D616, symBinAddr: 0x20C1E, symSize: 0x0 }
  - { offset: 0xB279, size: 0x8, addend: 0x0, symName: __ZL20percentile_arr_8x8_1, symObjAddr: 0x1D8CC, symBinAddr: 0x20ED4, symSize: 0x0 }
  - { offset: 0xB2A1, size: 0x8, addend: 0x0, symName: __ZL14block_pcd_10x5, symObjAddr: 0x20FE8, symBinAddr: 0x28230, symSize: 0x0 }
  - { offset: 0xB2BC, size: 0x8, addend: 0x0, symName: __ZL21percentile_arr_10x5_0, symObjAddr: 0x1DA6C, symBinAddr: 0x21074, symSize: 0x0 }
  - { offset: 0xB2E6, size: 0x8, addend: 0x0, symName: __ZL21percentile_arr_10x5_1, symObjAddr: 0x1DC90, symBinAddr: 0x21298, symSize: 0x0 }
  - { offset: 0xB30E, size: 0x8, addend: 0x0, symName: __ZL14block_pcd_10x6, symObjAddr: 0x21008, symBinAddr: 0x28250, symSize: 0x0 }
  - { offset: 0xB329, size: 0x8, addend: 0x0, symName: __ZL21percentile_arr_10x6_0, symObjAddr: 0x1DDF8, symBinAddr: 0x21400, symSize: 0x0 }
  - { offset: 0xB353, size: 0x8, addend: 0x0, symName: __ZL21percentile_arr_10x6_1, symObjAddr: 0x1E082, symBinAddr: 0x2168A, symSize: 0x0 }
  - { offset: 0xB37B, size: 0x8, addend: 0x0, symName: __ZL14block_pcd_10x8, symObjAddr: 0x21028, symBinAddr: 0x28270, symSize: 0x0 }
  - { offset: 0xB396, size: 0x8, addend: 0x0, symName: __ZL21percentile_arr_10x8_0, symObjAddr: 0x1E210, symBinAddr: 0x21818, symSize: 0x0 }
  - { offset: 0xB3C0, size: 0x8, addend: 0x0, symName: __ZL21percentile_arr_10x8_1, symObjAddr: 0x1E530, symBinAddr: 0x21B38, symSize: 0x0 }
  - { offset: 0xB3E8, size: 0x8, addend: 0x0, symName: __ZL15block_pcd_10x10, symObjAddr: 0x21048, symBinAddr: 0x28290, symSize: 0x0 }
  - { offset: 0xB403, size: 0x8, addend: 0x0, symName: __ZL22percentile_arr_10x10_0, symObjAddr: 0x1E6EA, symBinAddr: 0x21CF2, symSize: 0x0 }
  - { offset: 0xB42D, size: 0x8, addend: 0x0, symName: __ZL22percentile_arr_10x10_1, symObjAddr: 0x1EA74, symBinAddr: 0x2207C, symSize: 0x0 }
  - { offset: 0xB455, size: 0x8, addend: 0x0, symName: __ZL15block_pcd_12x10, symObjAddr: 0x21068, symBinAddr: 0x282B0, symSize: 0x0 }
  - { offset: 0xB470, size: 0x8, addend: 0x0, symName: __ZL22percentile_arr_12x10_0, symObjAddr: 0x1EC48, symBinAddr: 0x22250, symSize: 0x0 }
  - { offset: 0xB49A, size: 0x8, addend: 0x0, symName: __ZL22percentile_arr_12x10_1, symObjAddr: 0x1F01E, symBinAddr: 0x22626, symSize: 0x0 }
  - { offset: 0xB4C2, size: 0x8, addend: 0x0, symName: __ZL15block_pcd_12x12, symObjAddr: 0x21088, symBinAddr: 0x282D0, symSize: 0x0 }
  - { offset: 0xB4DD, size: 0x8, addend: 0x0, symName: __ZL22percentile_arr_12x12_0, symObjAddr: 0x1F1FE, symBinAddr: 0x22806, symSize: 0x0 }
  - { offset: 0xB507, size: 0x8, addend: 0x0, symName: __ZL22percentile_arr_12x12_1, symObjAddr: 0x1F620, symBinAddr: 0x22C28, symSize: 0x0 }
  - { offset: 0xB53C, size: 0x8, addend: 0x0, symName: __ZL35color_scrambled_pquant_to_uquant_q6, symObjAddr: 0x1AECE, symBinAddr: 0x1E4D6, symSize: 0x0 }
  - { offset: 0xB564, size: 0x8, addend: 0x0, symName: __ZL35color_scrambled_pquant_to_uquant_q8, symObjAddr: 0x1AED4, symBinAddr: 0x1E4DC, symSize: 0x0 }
  - { offset: 0xB57F, size: 0x8, addend: 0x0, symName: __ZL36color_scrambled_pquant_to_uquant_q10, symObjAddr: 0x1AEDC, symBinAddr: 0x1E4E4, symSize: 0x0 }
  - { offset: 0xB5A7, size: 0x8, addend: 0x0, symName: __ZL36color_scrambled_pquant_to_uquant_q12, symObjAddr: 0x1AEE6, symBinAddr: 0x1E4EE, symSize: 0x0 }
  - { offset: 0xB5CF, size: 0x8, addend: 0x0, symName: __ZL36color_scrambled_pquant_to_uquant_q16, symObjAddr: 0x1AEF2, symBinAddr: 0x1E4FA, symSize: 0x0 }
  - { offset: 0xB5F7, size: 0x8, addend: 0x0, symName: __ZL36color_scrambled_pquant_to_uquant_q20, symObjAddr: 0x1AF02, symBinAddr: 0x1E50A, symSize: 0x0 }
  - { offset: 0xB61F, size: 0x8, addend: 0x0, symName: __ZL36color_scrambled_pquant_to_uquant_q24, symObjAddr: 0x1AF16, symBinAddr: 0x1E51E, symSize: 0x0 }
  - { offset: 0xB647, size: 0x8, addend: 0x0, symName: __ZL36color_scrambled_pquant_to_uquant_q32, symObjAddr: 0x1AF2E, symBinAddr: 0x1E536, symSize: 0x0 }
  - { offset: 0xB66F, size: 0x8, addend: 0x0, symName: __ZL36color_scrambled_pquant_to_uquant_q40, symObjAddr: 0x1AF4E, symBinAddr: 0x1E556, symSize: 0x0 }
  - { offset: 0xB697, size: 0x8, addend: 0x0, symName: __ZL36color_scrambled_pquant_to_uquant_q48, symObjAddr: 0x1AF76, symBinAddr: 0x1E57E, symSize: 0x0 }
  - { offset: 0xB6BF, size: 0x8, addend: 0x0, symName: __ZL36color_scrambled_pquant_to_uquant_q64, symObjAddr: 0x1AFA6, symBinAddr: 0x1E5AE, symSize: 0x0 }
  - { offset: 0xB6E7, size: 0x8, addend: 0x0, symName: __ZL36color_scrambled_pquant_to_uquant_q80, symObjAddr: 0x1AFE6, symBinAddr: 0x1E5EE, symSize: 0x0 }
  - { offset: 0xB70F, size: 0x8, addend: 0x0, symName: __ZL36color_scrambled_pquant_to_uquant_q96, symObjAddr: 0x1B036, symBinAddr: 0x1E63E, symSize: 0x0 }
  - { offset: 0xB737, size: 0x8, addend: 0x0, symName: __ZL37color_scrambled_pquant_to_uquant_q128, symObjAddr: 0x1B096, symBinAddr: 0x1E69E, symSize: 0x0 }
  - { offset: 0xB75F, size: 0x8, addend: 0x0, symName: __ZL37color_scrambled_pquant_to_uquant_q160, symObjAddr: 0x1B116, symBinAddr: 0x1E71E, symSize: 0x0 }
  - { offset: 0xB787, size: 0x8, addend: 0x0, symName: __ZL37color_scrambled_pquant_to_uquant_q192, symObjAddr: 0x1B1B6, symBinAddr: 0x1E7BE, symSize: 0x0 }
  - { offset: 0xB7AF, size: 0x8, addend: 0x0, symName: __ZL37color_scrambled_pquant_to_uquant_q256, symObjAddr: 0x1B276, symBinAddr: 0x1E87E, symSize: 0x0 }
  - { offset: 0xB7D9, size: 0x8, addend: 0x0, symName: __ZL9sin_table, symObjAddr: 0xB9300, symBinAddr: 0x2C1C0, symSize: 0x0 }
  - { offset: 0xB807, size: 0x8, addend: 0x0, symName: __ZL9cos_table, symObjAddr: 0xBB300, symBinAddr: 0x2E1C0, symSize: 0x0 }
  - { offset: 0xB821, size: 0x8, addend: 0x0, symName: __ZL21steps_for_quant_level, symObjAddr: 0x1F88C, symBinAddr: 0x22E94, symSize: 0x0 }
  - { offset: 0xC255, size: 0x8, addend: 0x0, symName: __Z22astcenc_compress_imageP15astcenc_contextP13astcenc_imagePK15astcenc_swizzlePhmj, symObjAddr: 0xB7D4, symBinAddr: 0xF7D4, symSize: 0x6CC }
  - { offset: 0xD82C, size: 0x8, addend: 0x0, symName: __Z28compute_avgs_and_dirs_4_compRK14partition_infoRK11image_blockP17partition_metrics, symObjAddr: 0x0, symBinAddr: 0x4000, symSize: 0x1C4 }
  - { offset: 0xDA59, size: 0x8, addend: 0x0, symName: __ZL31compute_partition_averages_rgbaRK14partition_infoRK11image_blockP7vfloat4, symObjAddr: 0x1C4, symBinAddr: 0x41C4, symSize: 0x508 }
  - { offset: 0xDDAC, size: 0x8, addend: 0x0, symName: __Z28compute_avgs_and_dirs_3_compRK14partition_infoRK11image_blockjP17partition_metrics, symObjAddr: 0x6CC, symBinAddr: 0x46CC, symSize: 0x27C }
  - { offset: 0xDDB7, size: 0x8, addend: 0x0, symName: __Z28compute_avgs_and_dirs_4_compRK14partition_infoRK11image_blockP17partition_metrics.cold.1, symObjAddr: 0x14B60, symBinAddr: 0x18B70, symSize: 0x28 }
  - { offset: 0xDDCF, size: 0x8, addend: 0x0, symName: __Z28compute_avgs_and_dirs_4_compRK14partition_infoRK11image_blockP17partition_metrics.cold.2, symObjAddr: 0x14B88, symBinAddr: 0x18B98, symSize: 0x28 }
  - { offset: 0xDDE7, size: 0x8, addend: 0x0, symName: __ZL31compute_partition_averages_rgbaRK14partition_infoRK11image_blockP7vfloat4.cold.1, symObjAddr: 0x14BB0, symBinAddr: 0x18BC0, symSize: 0x28 }
  - { offset: 0xDDFE, size: 0x8, addend: 0x0, symName: __Z28compute_avgs_and_dirs_3_compRK14partition_infoRK11image_blockjP17partition_metrics, symObjAddr: 0x6CC, symBinAddr: 0x46CC, symSize: 0x27C }
  - { offset: 0xE025, size: 0x8, addend: 0x0, symName: __Z28compute_avgs_and_dirs_3_compRK14partition_infoRK11image_blockjP17partition_metrics.cold.1, symObjAddr: 0x14BD8, symBinAddr: 0x18BE8, symSize: 0x28 }
  - { offset: 0xE03D, size: 0x8, addend: 0x0, symName: __Z28compute_avgs_and_dirs_3_compRK14partition_infoRK11image_blockjP17partition_metrics.cold.2, symObjAddr: 0x14C00, symBinAddr: 0x18C10, symSize: 0x28 }
  - { offset: 0xE313, size: 0x8, addend: 0x0, symName: __Z32compute_avgs_and_dirs_3_comp_rgbRK14partition_infoRK11image_blockP17partition_metrics, symObjAddr: 0x948, symBinAddr: 0x4948, symSize: 0x5B0 }
  - { offset: 0xE64E, size: 0x8, addend: 0x0, symName: __Z32compute_avgs_and_dirs_3_comp_rgbRK14partition_infoRK11image_blockP17partition_metrics.cold.1, symObjAddr: 0x14C28, symBinAddr: 0x18C38, symSize: 0x28 }
  - { offset: 0xE666, size: 0x8, addend: 0x0, symName: __Z32compute_avgs_and_dirs_3_comp_rgbRK14partition_infoRK11image_blockP17partition_metrics.cold.3, symObjAddr: 0x14C78, symBinAddr: 0x18C88, symSize: 0x28 }
  - { offset: 0xE67E, size: 0x8, addend: 0x0, symName: __Z32compute_avgs_and_dirs_3_comp_rgbRK14partition_infoRK11image_blockP17partition_metrics.cold.2, symObjAddr: 0x14C50, symBinAddr: 0x18C60, symSize: 0x28 }
  - { offset: 0xE6AB, size: 0x8, addend: 0x0, symName: __Z28compute_avgs_and_dirs_2_compRK14partition_infoRK11image_blockjjP17partition_metrics, symObjAddr: 0xEF8, symBinAddr: 0x4EF8, symSize: 0x18C }
  - { offset: 0xE8A5, size: 0x8, addend: 0x0, symName: __Z26compute_error_squared_rgbaRK14partition_infoRK11image_blockPK15processed_line4S7_PfRfS9_, symObjAddr: 0x1084, symBinAddr: 0x5084, symSize: 0x3A0 }
  - { offset: 0xE8B0, size: 0x8, addend: 0x0, symName: __Z28compute_avgs_and_dirs_2_compRK14partition_infoRK11image_blockjjP17partition_metrics.cold.2, symObjAddr: 0x14CC8, symBinAddr: 0x18CD8, symSize: 0x28 }
  - { offset: 0xE8C8, size: 0x8, addend: 0x0, symName: __Z28compute_avgs_and_dirs_2_compRK14partition_infoRK11image_blockjjP17partition_metrics.cold.3, symObjAddr: 0x14CF0, symBinAddr: 0x18D00, symSize: 0x28 }
  - { offset: 0xE8E0, size: 0x8, addend: 0x0, symName: __Z28compute_avgs_and_dirs_2_compRK14partition_infoRK11image_blockjjP17partition_metrics.cold.1, symObjAddr: 0x14CA0, symBinAddr: 0x18CB0, symSize: 0x28 }
  - { offset: 0xE8F7, size: 0x8, addend: 0x0, symName: __Z26compute_error_squared_rgbaRK14partition_infoRK11image_blockPK15processed_line4S7_PfRfS9_, symObjAddr: 0x1084, symBinAddr: 0x5084, symSize: 0x3A0 }
  - { offset: 0xECAE, size: 0x8, addend: 0x0, symName: __Z25compute_error_squared_rgbRK14partition_infoRK11image_blockP16partition_lines3RfS7_, symObjAddr: 0x1424, symBinAddr: 0x5424, symSize: 0x328 }
  - { offset: 0xECB9, size: 0x8, addend: 0x0, symName: __Z26compute_error_squared_rgbaRK14partition_infoRK11image_blockPK15processed_line4S7_PfRfS9_.cold.1, symObjAddr: 0x14D18, symBinAddr: 0x18D28, symSize: 0x40 }
  - { offset: 0xECD1, size: 0x8, addend: 0x0, symName: __Z26compute_error_squared_rgbaRK14partition_infoRK11image_blockPK15processed_line4S7_PfRfS9_.cold.3, symObjAddr: 0x14D80, symBinAddr: 0x18D90, symSize: 0x28 }
  - { offset: 0xECE9, size: 0x8, addend: 0x0, symName: __Z26compute_error_squared_rgbaRK14partition_infoRK11image_blockPK15processed_line4S7_PfRfS9_.cold.2, symObjAddr: 0x14D58, symBinAddr: 0x18D68, symSize: 0x28 }
  - { offset: 0xED01, size: 0x8, addend: 0x0, symName: __Z26compute_error_squared_rgbaRK14partition_infoRK11image_blockPK15processed_line4S7_PfRfS9_.cold.4, symObjAddr: 0x14DA8, symBinAddr: 0x18DB8, symSize: 0x28 }
  - { offset: 0xED18, size: 0x8, addend: 0x0, symName: __Z25compute_error_squared_rgbRK14partition_infoRK11image_blockP16partition_lines3RfS7_, symObjAddr: 0x1424, symBinAddr: 0x5424, symSize: 0x328 }
  - { offset: 0xF05B, size: 0x8, addend: 0x0, symName: __Z26init_block_size_descriptorjjjbjfR21block_size_descriptor, symObjAddr: 0x174C, symBinAddr: 0x574C, symSize: 0x1574 }
  - { offset: 0xF070, size: 0x8, addend: 0x0, symName: __Z25compute_error_squared_rgbRK14partition_infoRK11image_blockP16partition_lines3RfS7_.cold.3, symObjAddr: 0x14E38, symBinAddr: 0x18E08, symSize: 0x28 }
  - { offset: 0xF088, size: 0x8, addend: 0x0, symName: __Z25compute_error_squared_rgbRK14partition_infoRK11image_blockP16partition_lines3RfS7_.cold.2, symObjAddr: 0x14E10, symBinAddr: 0x18DE0, symSize: 0x28 }
  - { offset: 0xF0A0, size: 0x8, addend: 0x0, symName: __Z25compute_error_squared_rgbRK14partition_infoRK11image_blockP16partition_lines3RfS7_.cold.4, symObjAddr: 0x14E60, symBinAddr: 0x18E30, symSize: 0x28 }
  - { offset: 0xFCEC, size: 0x8, addend: 0x0, symName: __Z26init_block_size_descriptorjjjbjfR21block_size_descriptor, symObjAddr: 0x174C, symBinAddr: 0x574C, symSize: 0x1574 }
  - { offset: 0x1083A, size: 0x8, addend: 0x0, symName: __ZL20assign_kmeans_texelsR21block_size_descriptor, symObjAddr: 0x13D34, symBinAddr: 0x17D34, symSize: 0x388 }
  - { offset: 0x10912, size: 0x8, addend: 0x0, symName: __Z23get_2d_percentile_tablejj, symObjAddr: 0x119B4, symBinAddr: 0x159B4, symSize: 0x1F4 }
  - { offset: 0x10A71, size: 0x8, addend: 0x0, symName: __Z21init_partition_tablesR21block_size_descriptorbj, symObjAddr: 0x2CC0, symBinAddr: 0x6CC0, symSize: 0xC0 }
  - { offset: 0x10BBD, size: 0x8, addend: 0x0, symName: __Z26init_block_size_descriptorjjjbjfR21block_size_descriptor.cold.7, symObjAddr: 0x14F78, symBinAddr: 0x18F48, symSize: 0x28 }
  - { offset: 0x10C01, size: 0x8, addend: 0x0, symName: __Z26init_block_size_descriptorjjjbjfR21block_size_descriptor.cold.6, symObjAddr: 0x14F50, symBinAddr: 0x18F20, symSize: 0x28 }
  - { offset: 0x10C45, size: 0x8, addend: 0x0, symName: __Z26init_block_size_descriptorjjjbjfR21block_size_descriptor.cold.3, symObjAddr: 0x14ED8, symBinAddr: 0x18EA8, symSize: 0x28 }
  - { offset: 0x10C89, size: 0x8, addend: 0x0, symName: __Z26init_block_size_descriptorjjjbjfR21block_size_descriptor.cold.2, symObjAddr: 0x14EB0, symBinAddr: 0x18E80, symSize: 0x28 }
  - { offset: 0x10CE3, size: 0x8, addend: 0x0, symName: __Z26init_block_size_descriptorjjjbjfR21block_size_descriptor.cold.1, symObjAddr: 0x14E88, symBinAddr: 0x18E58, symSize: 0x28 }
  - { offset: 0x10D27, size: 0x8, addend: 0x0, symName: __Z26init_block_size_descriptorjjjbjfR21block_size_descriptor.cold.5, symObjAddr: 0x14F28, symBinAddr: 0x18EF8, symSize: 0x28 }
  - { offset: 0x10D55, size: 0x8, addend: 0x0, symName: __Z26init_block_size_descriptorjjjbjfR21block_size_descriptor.cold.4, symObjAddr: 0x14F00, symBinAddr: 0x18ED0, symSize: 0x28 }
  - { offset: 0x10D83, size: 0x8, addend: 0x0, symName: __ZL33generate_one_partition_info_entryR21block_size_descriptorjjjR14partition_info, symObjAddr: 0x11008, symBinAddr: 0x15008, symSize: 0x6E0 }
  - { offset: 0x11065, size: 0x8, addend: 0x0, symName: __ZL45build_partition_table_for_one_partition_countR21block_size_descriptorbjjP14partition_infoPy, symObjAddr: 0x116E8, symBinAddr: 0x156E8, symSize: 0x2CC }
  - { offset: 0x11E20, size: 0x8, addend: 0x0, symName: __Z20pack_color_endpoints7vfloat4S_S_S_iPh12quant_method, symObjAddr: 0x2D80, symBinAddr: 0x6D80, symSize: 0x1470 }
  - { offset: 0x133FD, size: 0x8, addend: 0x0, symName: __ZL36try_quantize_rgb_delta_blue_contract7vfloat4S_R5vint4S1_12quant_method, symObjAddr: 0x41F0, symBinAddr: 0x81F0, symSize: 0x304 }
  - { offset: 0x1356B, size: 0x8, addend: 0x0, symName: __Z17rgba_delta_unpack5vint4S_RS_S0_, symObjAddr: 0x44F4, symBinAddr: 0x84F4, symSize: 0x90 }
  - { offset: 0x135A6, size: 0x8, addend: 0x0, symName: __ZL24try_quantize_alpha_delta7vfloat4S_R5vint4S1_12quant_method, symObjAddr: 0x140BC, symBinAddr: 0x180BC, symSize: 0xB8 }
  - { offset: 0x1371D, size: 0x8, addend: 0x0, symName: __ZL13quantize_rgbs7vfloat4Ph12quant_method, symObjAddr: 0x4AD4, symBinAddr: 0x8AD4, symSize: 0x170 }
  - { offset: 0x139CE, size: 0x8, addend: 0x0, symName: __ZL22try_quantize_rgb_delta7vfloat4S_R5vint4S1_12quant_method, symObjAddr: 0x4584, symBinAddr: 0x8584, symSize: 0x268 }
  - { offset: 0x13B13, size: 0x8, addend: 0x0, symName: __ZL30try_quantize_rgb_blue_contract7vfloat4S_R5vint4S1_12quant_method, symObjAddr: 0x47EC, symBinAddr: 0x87EC, symSize: 0x18C }
  - { offset: 0x13C0E, size: 0x8, addend: 0x0, symName: __Z11rgba_unpack5vint4S_RS_S0_, symObjAddr: 0x4978, symBinAddr: 0x8978, symSize: 0x5C }
  - { offset: 0x13C43, size: 0x8, addend: 0x0, symName: __ZL12quantize_rgb7vfloat4S_R5vint4S1_12quant_method, symObjAddr: 0x49D4, symBinAddr: 0x89D4, symSize: 0x100 }
  - { offset: 0x13D3A, size: 0x8, addend: 0x0, symName: __Z20pack_color_endpoints7vfloat4S_S_S_iPh12quant_method.cold.1, symObjAddr: 0x14FA0, symBinAddr: 0x18F70, symSize: 0x28 }
  - { offset: 0x143CB, size: 0x8, addend: 0x0, symName: __Z22unpack_color_endpoints15astcenc_profileiPKhRbS2_R5vint4S4_, symObjAddr: 0x5290, symBinAddr: 0x9290, symSize: 0xA14 }
  - { offset: 0x1531D, size: 0x8, addend: 0x0, symName: __Z40compute_ideal_colors_and_weights_2planesRK21block_size_descriptorRK11image_blockjR21endpoints_and_weightsS6_, symObjAddr: 0xDEA8, symBinAddr: 0x11EA8, symSize: 0x1A0 }
  - { offset: 0x154A4, size: 0x8, addend: 0x0, symName: __Z36compute_ideal_weights_for_decimationRK21endpoints_and_weightsRK15decimation_infoPf, symObjAddr: 0xEA40, symBinAddr: 0x12A40, symSize: 0x37C }
  - { offset: 0x15812, size: 0x8, addend: 0x0, symName: __Z33compute_angular_endpoints_2planesRK21block_size_descriptorPKfjR27compression_working_buffers, symObjAddr: 0x13A50, symBinAddr: 0x17A50, symSize: 0x1F4 }
  - { offset: 0x15A43, size: 0x8, addend: 0x0, symName: _AstcDecode, symObjAddr: 0x13C44, symBinAddr: 0x17C44, symSize: 0xF0 }
  - { offset: 0x15A4D, size: 0x8, addend: 0x0, symName: __Z35compute_error_of_weight_set_2planesRK21endpoints_and_weightsS1_RK15decimation_infoPKfS6_, symObjAddr: 0xE87C, symBinAddr: 0x1287C, symSize: 0x1C4 }
  - { offset: 0x15D29, size: 0x8, addend: 0x0, symName: __Z36compute_ideal_weights_for_decimationRK21endpoints_and_weightsRK15decimation_infoPf, symObjAddr: 0xEA40, symBinAddr: 0x12A40, symSize: 0x37C }
  - { offset: 0x15D34, size: 0x8, addend: 0x0, symName: __ZNK21block_size_descriptor18get_partition_infoEjj, symObjAddr: 0xA2A4, symBinAddr: 0xE2A4, symSize: 0x90 }
  - { offset: 0x15DD0, size: 0x8, addend: 0x0, symName: __Z40compute_symbolic_block_difference_2planeRK14astcenc_configRK21block_size_descriptorRK25symbolic_compressed_blockRK11image_block, symObjAddr: 0xA334, symBinAddr: 0xE334, symSize: 0x2B8 }
  - { offset: 0x15DDA, size: 0x8, addend: 0x0, symName: __Z30compute_ideal_endpoint_formatsRK14partition_infoRK11image_blockRK9endpointsPKaPKfjjjPA4_hPiP12quant_methodSG_R27compression_working_buffers, symObjAddr: 0x11CCC, symBinAddr: 0x15CCC, symSize: 0x1744 }
  - { offset: 0x16F85, size: 0x8, addend: 0x0, symName: __Z30recompute_ideal_colors_2planesRK11image_blockRK21block_size_descriptorRK15decimation_infoPKhS9_R9endpointsR7vfloat4SD_i, symObjAddr: 0xF62C, symBinAddr: 0x1362C, symSize: 0x814 }
  - { offset: 0x1799D, size: 0x8, addend: 0x0, symName: __Z40compute_symbolic_block_difference_2planeRK14astcenc_configRK21block_size_descriptorRK25symbolic_compressed_blockRK11image_block, symObjAddr: 0xA334, symBinAddr: 0xE334, symSize: 0x2B8 }
  - { offset: 0x17C3B, size: 0x8, addend: 0x0, symName: __ZL27realign_weights_undecimated15astcenc_profileRK21block_size_descriptorRK11image_blockR25symbolic_compressed_block, symObjAddr: 0x14600, symBinAddr: 0x18600, symSize: 0x2EC }
  - { offset: 0x17FF1, size: 0x8, addend: 0x0, symName: __ZL25realign_weights_decimated15astcenc_profileRK21block_size_descriptorRK11image_blockR25symbolic_compressed_block, symObjAddr: 0x14174, symBinAddr: 0x18174, symSize: 0x48C }
  - { offset: 0x184FE, size: 0x8, addend: 0x0, symName: __Z14compress_blockRK16astcenc_contextiRK11image_blockPhR27compression_working_buffers.cold.3, symObjAddr: 0x15258, symBinAddr: 0x18FE8, symSize: 0x3C }
  - { offset: 0x1852B, size: 0x8, addend: 0x0, symName: __Z30find_best_partition_candidatesRK21block_size_descriptorRK11image_blockjjPjj, symObjAddr: 0x7C68, symBinAddr: 0xBC68, symSize: 0xFA4 }
  - { offset: 0x197B6, size: 0x8, addend: 0x0, symName: __Z14compress_blockRK16astcenc_contextiRK11image_blockPhR27compression_working_buffers.cold.13, symObjAddr: 0x153FC, symBinAddr: 0x1918C, symSize: 0x24 }
  - { offset: 0x197E4, size: 0x8, addend: 0x0, symName: __Z14compress_blockRK16astcenc_contextiRK11image_blockPhR27compression_working_buffers.cold.5, symObjAddr: 0x152BC, symBinAddr: 0x1904C, symSize: 0x28 }
  - { offset: 0x19812, size: 0x8, addend: 0x0, symName: __Z14compress_blockRK16astcenc_contextiRK11image_blockPhR27compression_working_buffers.cold.6, symObjAddr: 0x152E4, symBinAddr: 0x19074, symSize: 0x28 }
  - { offset: 0x19840, size: 0x8, addend: 0x0, symName: __Z14compress_blockRK16astcenc_contextiRK11image_blockPhR27compression_working_buffers.cold.7, symObjAddr: 0x1530C, symBinAddr: 0x1909C, symSize: 0x28 }
  - { offset: 0x1986E, size: 0x8, addend: 0x0, symName: __Z14compress_blockRK16astcenc_contextiRK11image_blockPhR27compression_working_buffers.cold.10, symObjAddr: 0x15384, symBinAddr: 0x19114, symSize: 0x28 }
  - { offset: 0x1989C, size: 0x8, addend: 0x0, symName: __Z14compress_blockRK16astcenc_contextiRK11image_blockPhR27compression_working_buffers.cold.9, symObjAddr: 0x1535C, symBinAddr: 0x190EC, symSize: 0x28 }
  - { offset: 0x198CA, size: 0x8, addend: 0x0, symName: __Z14compress_blockRK16astcenc_contextiRK11image_blockPhR27compression_working_buffers.cold.8, symObjAddr: 0x15334, symBinAddr: 0x190C4, symSize: 0x28 }
  - { offset: 0x198F8, size: 0x8, addend: 0x0, symName: __Z14compress_blockRK16astcenc_contextiRK11image_blockPhR27compression_working_buffers.cold.4, symObjAddr: 0x15294, symBinAddr: 0x19024, symSize: 0x28 }
  - { offset: 0x1993C, size: 0x8, addend: 0x0, symName: __Z14compress_blockRK16astcenc_contextiRK11image_blockPhR27compression_working_buffers.cold.12, symObjAddr: 0x153D4, symBinAddr: 0x19164, symSize: 0x28 }
  - { offset: 0x1996A, size: 0x8, addend: 0x0, symName: __Z14compress_blockRK16astcenc_contextiRK11image_blockPhR27compression_working_buffers.cold.11, symObjAddr: 0x153AC, symBinAddr: 0x1913C, symSize: 0x28 }
  - { offset: 0x199A2, size: 0x8, addend: 0x0, symName: __Z14compress_blockRK16astcenc_contextiRK11image_blockPhR27compression_working_buffers.cold.2, symObjAddr: 0x15208, symBinAddr: 0x18F98, symSize: 0x50 }
  - { offset: 0x19A41, size: 0x8, addend: 0x0, symName: __Z20symbolic_to_physicalRK21block_size_descriptorRK25symbolic_compressed_blockPh.cold.3, symObjAddr: 0x1546C, symBinAddr: 0x191D8, symSize: 0x28 }
  - { offset: 0x19A59, size: 0x8, addend: 0x0, symName: __Z20symbolic_to_physicalRK21block_size_descriptorRK25symbolic_compressed_blockPh.cold.1, symObjAddr: 0x15420, symBinAddr: 0x191B0, symSize: 0x28 }
  - { offset: 0x19AB2, size: 0x8, addend: 0x0, symName: __Z39compute_ideal_colors_and_weights_1planeRK11image_blockRK14partition_infoR21endpoints_and_weights, symObjAddr: 0xD784, symBinAddr: 0x11784, symSize: 0x34C }
  - { offset: 0x19D74, size: 0x8, addend: 0x0, symName: __Z32compute_angular_endpoints_1planebRK21block_size_descriptorPKfjR27compression_working_buffers, symObjAddr: 0x13410, symBinAddr: 0x17410, symSize: 0x188 }
  - { offset: 0x19F3F, size: 0x8, addend: 0x0, symName: __ZL42compute_angular_endpoints_for_quant_levelsjPKfjPfS1_, symObjAddr: 0x13598, symBinAddr: 0x17598, symSize: 0x4B8 }
  - { offset: 0x19F49, size: 0x8, addend: 0x0, symName: __Z34compute_error_of_weight_set_1planeRK21endpoints_and_weightsRK15decimation_infoPKf, symObjAddr: 0xE5A0, symBinAddr: 0x125A0, symSize: 0x134 }
  - { offset: 0x1A165, size: 0x8, addend: 0x0, symName: __ZL19bilinear_infill_vlaRK15decimation_infoPKfj, symObjAddr: 0xE6D4, symBinAddr: 0x126D4, symSize: 0x118 }
  - { offset: 0x1A16F, size: 0x8, addend: 0x0, symName: __Z29recompute_ideal_colors_1planeRK11image_blockRK14partition_infoRK15decimation_infoPKhR9endpointsP7vfloat4SD_, symObjAddr: 0xEF88, symBinAddr: 0x12F88, symSize: 0x6A4 }
  - { offset: 0x1A9D7, size: 0x8, addend: 0x0, symName: __ZL44compress_symbolic_block_for_partition_1planeRK14astcenc_configRK21block_size_descriptorRK11image_blockbfjjR25symbolic_compressed_blockR27compression_working_buffersi.cold.2, symObjAddr: 0x154BC, symBinAddr: 0x19228, symSize: 0x28 }
  - { offset: 0x1A9EF, size: 0x8, addend: 0x0, symName: __ZL44compress_symbolic_block_for_partition_1planeRK14astcenc_configRK21block_size_descriptorRK11image_blockbfjjR25symbolic_compressed_blockR27compression_working_buffersi.cold.3, symObjAddr: 0x154E4, symBinAddr: 0x19250, symSize: 0x28 }
  - { offset: 0x1AA07, size: 0x8, addend: 0x0, symName: __ZL44compress_symbolic_block_for_partition_1planeRK14astcenc_configRK21block_size_descriptorRK11image_blockbfjjR25symbolic_compressed_blockR27compression_working_buffersi.cold.1, symObjAddr: 0x15494, symBinAddr: 0x19200, symSize: 0x28 }
  - { offset: 0x1AA1F, size: 0x8, addend: 0x0, symName: __ZL44compress_symbolic_block_for_partition_1planeRK14astcenc_configRK21block_size_descriptorRK11image_blockbfjjR25symbolic_compressed_blockR27compression_working_buffersi.cold.8, symObjAddr: 0x155AC, symBinAddr: 0x19318, symSize: 0x28 }
  - { offset: 0x1AA37, size: 0x8, addend: 0x0, symName: __ZL44compress_symbolic_block_for_partition_1planeRK14astcenc_configRK21block_size_descriptorRK11image_blockbfjjR25symbolic_compressed_blockR27compression_working_buffersi.cold.7, symObjAddr: 0x15584, symBinAddr: 0x192F0, symSize: 0x28 }
  - { offset: 0x1AA4F, size: 0x8, addend: 0x0, symName: __ZL44compress_symbolic_block_for_partition_1planeRK14astcenc_configRK21block_size_descriptorRK11image_blockbfjjR25symbolic_compressed_blockR27compression_working_buffersi.cold.6, symObjAddr: 0x1555C, symBinAddr: 0x192C8, symSize: 0x28 }
  - { offset: 0x1AA67, size: 0x8, addend: 0x0, symName: __ZL44compress_symbolic_block_for_partition_1planeRK14astcenc_configRK21block_size_descriptorRK11image_blockbfjjR25symbolic_compressed_blockR27compression_working_buffersi.cold.5, symObjAddr: 0x15534, symBinAddr: 0x192A0, symSize: 0x28 }
  - { offset: 0x1AA7F, size: 0x8, addend: 0x0, symName: __ZL44compress_symbolic_block_for_partition_1planeRK14astcenc_configRK21block_size_descriptorRK11image_blockbfjjR25symbolic_compressed_blockR27compression_working_buffersi.cold.4, symObjAddr: 0x1550C, symBinAddr: 0x19278, symSize: 0x28 }
  - { offset: 0x1B1BA, size: 0x8, addend: 0x0, symName: __ZNK21block_size_descriptor22get_raw_partition_infoEjj, symObjAddr: 0xD69C, symBinAddr: 0x1169C, symSize: 0x58 }
  - { offset: 0x1B235, size: 0x8, addend: 0x0, symName: __ZL13insert_resultjfjPfPj, symObjAddr: 0xD6F4, symBinAddr: 0x116F4, symSize: 0x90 }
  - { offset: 0x1B240, size: 0x8, addend: 0x0, symName: __ZL13insert_resultjfjPfPj, symObjAddr: 0xD6F4, symBinAddr: 0x116F4, symSize: 0x90 }
  - { offset: 0x1B2EA, size: 0x8, addend: 0x0, symName: __Z39compute_ideal_colors_and_weights_1planeRK11image_blockRK14partition_infoR21endpoints_and_weights, symObjAddr: 0xD784, symBinAddr: 0x11784, symSize: 0x34C }
  - { offset: 0x1B2F5, size: 0x8, addend: 0x0, symName: __Z30find_best_partition_candidatesRK21block_size_descriptorRK11image_blockjjPjj.cold.10, symObjAddr: 0x15754, symBinAddr: 0x19480, symSize: 0x28 }
  - { offset: 0x1B339, size: 0x8, addend: 0x0, symName: __Z30find_best_partition_candidatesRK21block_size_descriptorRK11image_blockjjPjj.cold.1, symObjAddr: 0x155D4, symBinAddr: 0x19340, symSize: 0x28 }
  - { offset: 0x1B37D, size: 0x8, addend: 0x0, symName: __Z30find_best_partition_candidatesRK21block_size_descriptorRK11image_blockjjPjj.cold.11, symObjAddr: 0x1577C, symBinAddr: 0x194A8, symSize: 0x28 }
  - { offset: 0x1B3C1, size: 0x8, addend: 0x0, symName: __Z30find_best_partition_candidatesRK21block_size_descriptorRK11image_blockjjPjj.cold.3, symObjAddr: 0x15624, symBinAddr: 0x19390, symSize: 0x28 }
  - { offset: 0x1B405, size: 0x8, addend: 0x0, symName: __Z30find_best_partition_candidatesRK21block_size_descriptorRK11image_blockjjPjj.cold.5, symObjAddr: 0x15674, symBinAddr: 0x193E0, symSize: 0x28 }
  - { offset: 0x1B449, size: 0x8, addend: 0x0, symName: __Z30find_best_partition_candidatesRK21block_size_descriptorRK11image_blockjjPjj.cold.8, symObjAddr: 0x15704, symBinAddr: 0x19430, symSize: 0x28 }
  - { offset: 0x1B48D, size: 0x8, addend: 0x0, symName: __Z30find_best_partition_candidatesRK21block_size_descriptorRK11image_blockjjPjj.cold.2, symObjAddr: 0x155FC, symBinAddr: 0x19368, symSize: 0x28 }
  - { offset: 0x1B4D1, size: 0x8, addend: 0x0, symName: __Z30find_best_partition_candidatesRK21block_size_descriptorRK11image_blockjjPjj.cold.4, symObjAddr: 0x1564C, symBinAddr: 0x193B8, symSize: 0x28 }
  - { offset: 0x1B515, size: 0x8, addend: 0x0, symName: __Z30find_best_partition_candidatesRK21block_size_descriptorRK11image_blockjjPjj.cold.6, symObjAddr: 0x1569C, symBinAddr: 0x19408, symSize: 0x28 }
  - { offset: 0x1B559, size: 0x8, addend: 0x0, symName: __Z30find_best_partition_candidatesRK21block_size_descriptorRK11image_blockjjPjj.cold.13, symObjAddr: 0x157CC, symBinAddr: 0x194F8, symSize: 0x28 }
  - { offset: 0x1B571, size: 0x8, addend: 0x0, symName: __Z30find_best_partition_candidatesRK21block_size_descriptorRK11image_blockjjPjj.cold.12, symObjAddr: 0x157A4, symBinAddr: 0x194D0, symSize: 0x28 }
  - { offset: 0x1B589, size: 0x8, addend: 0x0, symName: __Z30find_best_partition_candidatesRK21block_size_descriptorRK11image_blockjjPjj.cold.9, symObjAddr: 0x1572C, symBinAddr: 0x19458, symSize: 0x28 }
  - { offset: 0x1B5E2, size: 0x8, addend: 0x0, symName: __Z29compute_pixel_region_varianceR16astcenc_contextiRK17pixel_region_args, symObjAddr: 0x8C0C, symBinAddr: 0xCC0C, symSize: 0xC38 }
  - { offset: 0x1C090, size: 0x8, addend: 0x0, symName: __ZL21brent_kung_prefix_sumP7vfloat4mi, symObjAddr: 0x9844, symBinAddr: 0xD844, symSize: 0xE8 }
  - { offset: 0x1C1D1, size: 0x8, addend: 0x0, symName: __Z29compute_pixel_region_varianceR16astcenc_contextiRK17pixel_region_args.cold.1, symObjAddr: 0x157F4, symBinAddr: 0x19520, symSize: 0x28 }
  - { offset: 0x1C1E9, size: 0x8, addend: 0x0, symName: __Z21init_compute_averagesRK13astcenc_imagejRK15astcenc_swizzleR8avg_args, symObjAddr: 0x992C, symBinAddr: 0xD92C, symSize: 0x9C }
  - { offset: 0x1C322, size: 0x8, addend: 0x0, symName: __Z14unpack_weightsRK21block_size_descriptorRK25symbolic_compressed_blockRK15decimation_infobPiS8_, symObjAddr: 0x99C8, symBinAddr: 0xD9C8, symSize: 0x148 }
  - { offset: 0x1C5B3, size: 0x8, addend: 0x0, symName: __Z25decompress_symbolic_block15astcenc_profileRK21block_size_descriptoriiiRK25symbolic_compressed_blockR11image_block, symObjAddr: 0x9B10, symBinAddr: 0xDB10, symSize: 0x794 }
  - { offset: 0x1C5BE, size: 0x8, addend: 0x0, symName: __Z14unpack_weightsRK21block_size_descriptorRK25symbolic_compressed_blockRK15decimation_infobPiS8_.cold.2, symObjAddr: 0x15844, symBinAddr: 0x19570, symSize: 0x28 }
  - { offset: 0x1C5D6, size: 0x8, addend: 0x0, symName: __Z14unpack_weightsRK21block_size_descriptorRK25symbolic_compressed_blockRK15decimation_infobPiS8_.cold.1, symObjAddr: 0x1581C, symBinAddr: 0x19548, symSize: 0x28 }
  - { offset: 0x1C6DD, size: 0x8, addend: 0x0, symName: __Z25decompress_symbolic_block15astcenc_profileRK21block_size_descriptoriiiRK25symbolic_compressed_blockR11image_block, symObjAddr: 0x9B10, symBinAddr: 0xDB10, symSize: 0x794 }
  - { offset: 0x1CB3D, size: 0x8, addend: 0x0, symName: __Z25decompress_symbolic_block15astcenc_profileRK21block_size_descriptoriiiRK25symbolic_compressed_blockR11image_block.cold.2, symObjAddr: 0x158AC, symBinAddr: 0x19598, symSize: 0x24 }
  - { offset: 0x1CB8D, size: 0x8, addend: 0x0, symName: __ZNK21block_size_descriptor18get_partition_infoEjj.cold.2, symObjAddr: 0x15A00, symBinAddr: 0x195E4, symSize: 0x28 }
  - { offset: 0x1CBA5, size: 0x8, addend: 0x0, symName: __ZNK21block_size_descriptor18get_partition_infoEjj.cold.1, symObjAddr: 0x159D8, symBinAddr: 0x195BC, symSize: 0x28 }
  - { offset: 0x1CBD2, size: 0x8, addend: 0x0, symName: __Z40compute_symbolic_block_difference_2planeRK14astcenc_configRK21block_size_descriptorRK25symbolic_compressed_blockRK11image_block.cold.1, symObjAddr: 0x15A28, symBinAddr: 0x1960C, symSize: 0x28 }
  - { offset: 0x1CBEA, size: 0x8, addend: 0x0, symName: __Z40compute_symbolic_block_difference_2planeRK14astcenc_configRK21block_size_descriptorRK25symbolic_compressed_blockRK11image_block.cold.3, symObjAddr: 0x15A74, symBinAddr: 0x19634, symSize: 0x28 }
  - { offset: 0x1CC01, size: 0x8, addend: 0x0, symName: __Z40compute_symbolic_block_difference_1planeRK14astcenc_configRK21block_size_descriptorRK25symbolic_compressed_blockRK11image_block, symObjAddr: 0xA5EC, symBinAddr: 0xE5EC, symSize: 0x348 }
  - { offset: 0x1CF25, size: 0x8, addend: 0x0, symName: __Z40compute_symbolic_block_difference_1planeRK14astcenc_configRK21block_size_descriptorRK25symbolic_compressed_blockRK11image_block.cold.1, symObjAddr: 0x15A9C, symBinAddr: 0x1965C, symSize: 0x24 }
  - { offset: 0x1CF3C, size: 0x8, addend: 0x0, symName: __Z51compute_symbolic_block_difference_1plane_1partitionRK14astcenc_configRK21block_size_descriptorRK25symbolic_compressed_blockRK11image_block, symObjAddr: 0xA934, symBinAddr: 0xE934, symSize: 0x358 }
  - { offset: 0x1D34F, size: 0x8, addend: 0x0, symName: __Z51compute_symbolic_block_difference_1plane_1partitionRK14astcenc_configRK21block_size_descriptorRK25symbolic_compressed_blockRK11image_block.cold.1, symObjAddr: 0x15B08, symBinAddr: 0x19680, symSize: 0x28 }
  - { offset: 0x1D444, size: 0x8, addend: 0x0, symName: __ZL19validate_block_sizejjj, symObjAddr: 0xB08C, symBinAddr: 0xF08C, symSize: 0x64 }
  - { offset: 0x1D4CC, size: 0x8, addend: 0x0, symName: __Z19astcenc_config_init15astcenc_profilejjjfjP14astcenc_config.cold.1, symObjAddr: 0x15B54, symBinAddr: 0x196A8, symSize: 0x28 }
  - { offset: 0x1D4E4, size: 0x8, addend: 0x0, symName: __Z22is_legal_2d_block_sizejj, symObjAddr: 0x11BA8, symBinAddr: 0x15BA8, symSize: 0x88 }
  - { offset: 0x1D533, size: 0x8, addend: 0x0, symName: __Z22is_legal_3d_block_sizejjj, symObjAddr: 0x11C30, symBinAddr: 0x15C30, symSize: 0x9C }
  - { offset: 0x1DD10, size: 0x8, addend: 0x0, symName: __Z21astcenc_context_allocPK14astcenc_configjPP15astcenc_context, symObjAddr: 0xB0F0, symBinAddr: 0xF0F0, symSize: 0x568 }
  - { offset: 0x1E588, size: 0x8, addend: 0x0, symName: __Z22prepare_angular_tablesv, symObjAddr: 0xB6C0, symBinAddr: 0xF6C0, symSize: 0x94 }
  - { offset: 0x1E608, size: 0x8, addend: 0x0, symName: __ZN15astcenc_contextD1Ev, symObjAddr: 0xB658, symBinAddr: 0xF658, symSize: 0x68 }
  - { offset: 0x1E6BA, size: 0x8, addend: 0x0, symName: __Z20astcenc_context_freeP15astcenc_context, symObjAddr: 0xB754, symBinAddr: 0xF754, symSize: 0x80 }
  - { offset: 0x1F298, size: 0x8, addend: 0x0, symName: __Z22astcenc_compress_resetP15astcenc_context, symObjAddr: 0xBEA0, symBinAddr: 0xFEA0, symSize: 0x5C }
  - { offset: 0x1F3FC, size: 0x8, addend: 0x0, symName: __ZN15ParallelManager4initENSt3__18functionIFjvEEE, symObjAddr: 0xBEFC, symBinAddr: 0xFEFC, symSize: 0x6C }
  - { offset: 0x1F516, size: 0x8, addend: 0x0, symName: __ZN15ParallelManager24complete_task_assignmentEj, symObjAddr: 0xD07C, symBinAddr: 0x1107C, symSize: 0x13C }
  - { offset: 0x1F7A9, size: 0x8, addend: 0x0, symName: __ZN15ParallelManager4waitEv, symObjAddr: 0xBF68, symBinAddr: 0xFF68, symSize: 0x68 }
  - { offset: 0x1F8B5, size: 0x8, addend: 0x0, symName: __ZN15ParallelManager4initEjPFvfE, symObjAddr: 0xC310, symBinAddr: 0x10310, symSize: 0x74 }
  - { offset: 0x1F9B3, size: 0x8, addend: 0x0, symName: __ZN15ParallelManager4termENSt3__18functionIFvvEEE, symObjAddr: 0xBFD0, symBinAddr: 0xFFD0, symSize: 0x68 }
  - { offset: 0x1FCFC, size: 0x8, addend: 0x0, symName: __Z24astcenc_decompress_imageP15astcenc_contextPKhmP13astcenc_imagePK15astcenc_swizzlej, symObjAddr: 0xC038, symBinAddr: 0x10038, symSize: 0x2AC }
  - { offset: 0x20104, size: 0x8, addend: 0x0, symName: __Z17store_image_blockR13astcenc_imageRK11image_blockRK21block_size_descriptorjjjRK15astcenc_swizzle, symObjAddr: 0xC994, symBinAddr: 0x10994, symSize: 0x6E8 }
  - { offset: 0x207C7, size: 0x8, addend: 0x0, symName: __Z24astcenc_decompress_resetP15astcenc_context, symObjAddr: 0xC2E4, symBinAddr: 0x102E4, symSize: 0x2C }
  - { offset: 0x207E7, size: 0x8, addend: 0x0, symName: __Z24astcenc_decompress_resetP15astcenc_context, symObjAddr: 0xC2E4, symBinAddr: 0x102E4, symSize: 0x2C }
  - { offset: 0x208D6, size: 0x8, addend: 0x0, symName: __Z20physical_to_symbolicRK21block_size_descriptorPKhR25symbolic_compressed_block.cold.2, symObjAddr: 0x15BA0, symBinAddr: 0x196D0, symSize: 0x28 }
  - { offset: 0x208F8, size: 0x8, addend: 0x0, symName: __Z17store_image_blockR13astcenc_imageRK11image_blockRK21block_size_descriptorjjjRK15astcenc_swizzle.cold.2, symObjAddr: 0x15C08, symBinAddr: 0x196F8, symSize: 0x28 }
  - { offset: 0x20941, size: 0x8, addend: 0x0, symName: __Z22astcenc_get_block_infoP15astcenc_contextPKhP18astcenc_block_info, symObjAddr: 0xD1B8, symBinAddr: 0x111B8, symSize: 0x4C4 }
  - { offset: 0x20C80, size: 0x8, addend: 0x0, symName: __Z24astcenc_get_error_string13astcenc_error, symObjAddr: 0xD67C, symBinAddr: 0x1167C, symSize: 0x20 }
  - { offset: 0x20CB0, size: 0x8, addend: 0x0, symName: __ZNK21block_size_descriptor22get_raw_partition_infoEjj.cold.1, symObjAddr: 0x15CB4, symBinAddr: 0x19720, symSize: 0x28 }
  - { offset: 0x20CC8, size: 0x8, addend: 0x0, symName: __ZL13insert_resultjfjPfPj.cold.1, symObjAddr: 0x15CDC, symBinAddr: 0x19748, symSize: 0x28 }
  - { offset: 0x20E9F, size: 0x8, addend: 0x0, symName: __ZL39compute_ideal_colors_and_weights_3_compRK11image_blockRK14partition_infoR21endpoints_and_weightsj, symObjAddr: 0xDAD0, symBinAddr: 0x11AD0, symSize: 0x3D8 }
  - { offset: 0x21229, size: 0x8, addend: 0x0, symName: __Z39compute_ideal_colors_and_weights_1planeRK11image_blockRK14partition_infoR21endpoints_and_weights.cold.2, symObjAddr: 0x15D44, symBinAddr: 0x19770, symSize: 0x28 }
  - { offset: 0x21257, size: 0x8, addend: 0x0, symName: __Z39compute_ideal_colors_and_weights_1planeRK11image_blockRK14partition_infoR21endpoints_and_weights.cold.4, symObjAddr: 0x15D94, symBinAddr: 0x197C0, symSize: 0x28 }
  - { offset: 0x21285, size: 0x8, addend: 0x0, symName: __Z39compute_ideal_colors_and_weights_1planeRK11image_blockRK14partition_infoR21endpoints_and_weights.cold.3, symObjAddr: 0x15D6C, symBinAddr: 0x19798, symSize: 0x28 }
  - { offset: 0x212C8, size: 0x8, addend: 0x0, symName: __ZL39compute_ideal_colors_and_weights_3_compRK11image_blockRK14partition_infoR21endpoints_and_weightsj.cold.1, symObjAddr: 0x15DBC, symBinAddr: 0x197E8, symSize: 0x28 }
  - { offset: 0x212E0, size: 0x8, addend: 0x0, symName: __ZL39compute_ideal_colors_and_weights_3_compRK11image_blockRK14partition_infoR21endpoints_and_weightsj.cold.3, symObjAddr: 0x15E0C, symBinAddr: 0x19838, symSize: 0x28 }
  - { offset: 0x212F8, size: 0x8, addend: 0x0, symName: __ZL39compute_ideal_colors_and_weights_3_compRK11image_blockRK14partition_infoR21endpoints_and_weightsj.cold.2, symObjAddr: 0x15DE4, symBinAddr: 0x19810, symSize: 0x28 }
  - { offset: 0x21310, size: 0x8, addend: 0x0, symName: __ZL39compute_ideal_colors_and_weights_2_compRK11image_blockRK14partition_infoR21endpoints_and_weightsii, symObjAddr: 0xE048, symBinAddr: 0x12048, symSize: 0x368 }
  - { offset: 0x2169C, size: 0x8, addend: 0x0, symName: __ZL39compute_ideal_colors_and_weights_1_compRK11image_blockRK14partition_infoR21endpoints_and_weightsj, symObjAddr: 0xE3B0, symBinAddr: 0x123B0, symSize: 0x1F0 }
  - { offset: 0x2194F, size: 0x8, addend: 0x0, symName: __Z34compute_error_of_weight_set_1planeRK21endpoints_and_weightsRK15decimation_infoPKf, symObjAddr: 0xE5A0, symBinAddr: 0x125A0, symSize: 0x134 }
  - { offset: 0x2195A, size: 0x8, addend: 0x0, symName: __Z40compute_ideal_colors_and_weights_2planesRK21block_size_descriptorRK11image_blockjR21endpoints_and_weightsS6_.cold.3, symObjAddr: 0x15E9C, symBinAddr: 0x19888, symSize: 0x28 }
  - { offset: 0x21972, size: 0x8, addend: 0x0, symName: __Z40compute_ideal_colors_and_weights_2planesRK21block_size_descriptorRK11image_blockjR21endpoints_and_weightsS6_.cold.2, symObjAddr: 0x15E74, symBinAddr: 0x19860, symSize: 0x28 }
  - { offset: 0x2199F, size: 0x8, addend: 0x0, symName: __ZL39compute_ideal_colors_and_weights_2_compRK11image_blockRK14partition_infoR21endpoints_and_weightsii.cold.2, symObjAddr: 0x15EEC, symBinAddr: 0x198D8, symSize: 0x28 }
  - { offset: 0x219B7, size: 0x8, addend: 0x0, symName: __ZL39compute_ideal_colors_and_weights_2_compRK11image_blockRK14partition_infoR21endpoints_and_weightsii.cold.4, symObjAddr: 0x15F3C, symBinAddr: 0x19928, symSize: 0x28 }
  - { offset: 0x219CF, size: 0x8, addend: 0x0, symName: __ZL39compute_ideal_colors_and_weights_2_compRK11image_blockRK14partition_infoR21endpoints_and_weightsii.cold.3, symObjAddr: 0x15F14, symBinAddr: 0x19900, symSize: 0x28 }
  - { offset: 0x219E7, size: 0x8, addend: 0x0, symName: __ZL39compute_ideal_colors_and_weights_2_compRK11image_blockRK14partition_infoR21endpoints_and_weightsii.cold.1, symObjAddr: 0x15EC4, symBinAddr: 0x198B0, symSize: 0x28 }
  - { offset: 0x219FF, size: 0x8, addend: 0x0, symName: __ZL39compute_ideal_colors_and_weights_1_compRK11image_blockRK14partition_infoR21endpoints_and_weightsj.cold.1, symObjAddr: 0x15F64, symBinAddr: 0x19950, symSize: 0x28 }
  - { offset: 0x21A17, size: 0x8, addend: 0x0, symName: __ZL39compute_ideal_colors_and_weights_1_compRK11image_blockRK14partition_infoR21endpoints_and_weightsj.cold.4, symObjAddr: 0x15FDC, symBinAddr: 0x199C8, symSize: 0x28 }
  - { offset: 0x21A2F, size: 0x8, addend: 0x0, symName: __ZL39compute_ideal_colors_and_weights_1_compRK11image_blockRK14partition_infoR21endpoints_and_weightsj.cold.3, symObjAddr: 0x15FB4, symBinAddr: 0x199A0, symSize: 0x28 }
  - { offset: 0x21A47, size: 0x8, addend: 0x0, symName: __ZL39compute_ideal_colors_and_weights_1_compRK11image_blockRK14partition_infoR21endpoints_and_weightsj.cold.2, symObjAddr: 0x15F8C, symBinAddr: 0x19978, symSize: 0x28 }
  - { offset: 0x21A5F, size: 0x8, addend: 0x0, symName: __ZL19bilinear_infill_vlaRK15decimation_infoPKfj, symObjAddr: 0xE6D4, symBinAddr: 0x126D4, symSize: 0x118 }
  - { offset: 0x21B69, size: 0x8, addend: 0x0, symName: __ZL21bilinear_infill_vla_2RK15decimation_infoPKfj, symObjAddr: 0xE7EC, symBinAddr: 0x127EC, symSize: 0x90 }
  - { offset: 0x21C13, size: 0x8, addend: 0x0, symName: __Z34compute_error_of_weight_set_1planeRK21endpoints_and_weightsRK15decimation_infoPKf.cold.1, symObjAddr: 0x16004, symBinAddr: 0x199F0, symSize: 0x28 }
  - { offset: 0x21C2B, size: 0x8, addend: 0x0, symName: __Z35compute_error_of_weight_set_2planesRK21endpoints_and_weightsS1_RK15decimation_infoPKfS6_.cold.1, symObjAddr: 0x1602C, symBinAddr: 0x19A18, symSize: 0x28 }
  - { offset: 0x21C43, size: 0x8, addend: 0x0, symName: __Z36compute_ideal_weights_for_decimationRK21endpoints_and_weightsRK15decimation_infoPf.cold.2, symObjAddr: 0x1607C, symBinAddr: 0x19A68, symSize: 0x28 }
  - { offset: 0x21C5B, size: 0x8, addend: 0x0, symName: __Z36compute_ideal_weights_for_decimationRK21endpoints_and_weightsRK15decimation_infoPf.cold.1, symObjAddr: 0x16054, symBinAddr: 0x19A40, symSize: 0x28 }
  - { offset: 0x21C73, size: 0x8, addend: 0x0, symName: __Z36compute_ideal_weights_for_decimationRK21endpoints_and_weightsRK15decimation_infoPf.cold.4, symObjAddr: 0x160CC, symBinAddr: 0x19AB8, symSize: 0x28 }
  - { offset: 0x21C8B, size: 0x8, addend: 0x0, symName: __Z36compute_ideal_weights_for_decimationRK21endpoints_and_weightsRK15decimation_infoPf.cold.3, symObjAddr: 0x160A4, symBinAddr: 0x19A90, symSize: 0x28 }
  - { offset: 0x21CA3, size: 0x8, addend: 0x0, symName: __Z40compute_quantized_weights_for_decimationRK15decimation_infoffPKfPfPh12quant_method.cold.1, symObjAddr: 0x160F4, symBinAddr: 0x19AE0, symSize: 0x28 }
  - { offset: 0x21E42, size: 0x8, addend: 0x0, symName: __Z29recompute_ideal_colors_1planeRK11image_blockRK14partition_infoRK15decimation_infoPKhR9endpointsP7vfloat4SD_.cold.1, symObjAddr: 0x1611C, symBinAddr: 0x19B08, symSize: 0x28 }
  - { offset: 0x21E5A, size: 0x8, addend: 0x0, symName: __Z29recompute_ideal_colors_1planeRK11image_blockRK14partition_infoRK15decimation_infoPKhR9endpointsP7vfloat4SD_.cold.4, symObjAddr: 0x16194, symBinAddr: 0x19B80, symSize: 0x28 }
  - { offset: 0x21E72, size: 0x8, addend: 0x0, symName: __Z29recompute_ideal_colors_1planeRK11image_blockRK14partition_infoRK15decimation_infoPKhR9endpointsP7vfloat4SD_.cold.3, symObjAddr: 0x1616C, symBinAddr: 0x19B58, symSize: 0x28 }
  - { offset: 0x21E8A, size: 0x8, addend: 0x0, symName: __Z29recompute_ideal_colors_1planeRK11image_blockRK14partition_infoRK15decimation_infoPKhR9endpointsP7vfloat4SD_.cold.2, symObjAddr: 0x16144, symBinAddr: 0x19B30, symSize: 0x28 }
  - { offset: 0x21EA2, size: 0x8, addend: 0x0, symName: __Z30recompute_ideal_colors_2planesRK11image_blockRK21block_size_descriptorRK15decimation_infoPKhS9_R9endpointsR7vfloat4SD_i.cold.3, symObjAddr: 0x1620C, symBinAddr: 0x19BF8, symSize: 0x28 }
  - { offset: 0x21EBA, size: 0x8, addend: 0x0, symName: __Z30recompute_ideal_colors_2planesRK11image_blockRK21block_size_descriptorRK15decimation_infoPKhS9_R9endpointsR7vfloat4SD_i.cold.2, symObjAddr: 0x161E4, symBinAddr: 0x19BD0, symSize: 0x28 }
  - { offset: 0x21ED2, size: 0x8, addend: 0x0, symName: __Z30recompute_ideal_colors_2planesRK11image_blockRK21block_size_descriptorRK15decimation_infoPKhS9_R9endpointsR7vfloat4SD_i.cold.1, symObjAddr: 0x161BC, symBinAddr: 0x19BA8, symSize: 0x28 }
  - { offset: 0x21EEA, size: 0x8, addend: 0x0, symName: __Z16load_image_block15astcenc_profileRK13astcenc_imageR11image_blockRK21block_size_descriptorjjjRK15astcenc_swizzle, symObjAddr: 0xFE40, symBinAddr: 0x13E40, symSize: 0x464 }
  - { offset: 0x22262, size: 0x8, addend: 0x0, symName: __ZL13load_texel_u8PKvi, symObjAddr: 0x102A4, symBinAddr: 0x142A4, symSize: 0x24 }
  - { offset: 0x222AB, size: 0x8, addend: 0x0, symName: __ZL14load_texel_f16PKvi, symObjAddr: 0x102C8, symBinAddr: 0x142C8, symSize: 0x10 }
  - { offset: 0x22324, size: 0x8, addend: 0x0, symName: __ZL14load_texel_f32PKvi, symObjAddr: 0x102D8, symBinAddr: 0x142D8, symSize: 0xC }
  - { offset: 0x2236D, size: 0x8, addend: 0x0, symName: __ZL14swz_texel_skip7vfloat4RK15astcenc_swizzle, symObjAddr: 0x102E4, symBinAddr: 0x142E4, symSize: 0x4 }
  - { offset: 0x223A2, size: 0x8, addend: 0x0, symName: __ZL9swz_texel7vfloat4RK15astcenc_swizzle, symObjAddr: 0x102E8, symBinAddr: 0x142E8, symSize: 0x7C }
  - { offset: 0x223EC, size: 0x8, addend: 0x0, symName: __ZL18encode_texel_unorm7vfloat46vmask4, symObjAddr: 0x10364, symBinAddr: 0x14364, symSize: 0x14 }
  - { offset: 0x22421, size: 0x8, addend: 0x0, symName: __ZL16encode_texel_lns7vfloat46vmask4, symObjAddr: 0x10378, symBinAddr: 0x14378, symSize: 0xE0 }
  - { offset: 0x22471, size: 0x8, addend: 0x0, symName: __Z25load_image_block_fast_ldr15astcenc_profileRK13astcenc_imageR11image_blockRK21block_size_descriptorjjjRK15astcenc_swizzle, symObjAddr: 0x10458, symBinAddr: 0x14458, symSize: 0x1D0 }
  - { offset: 0x2268D, size: 0x8, addend: 0x0, symName: __Z25get_ise_sequence_bitcountj12quant_method, symObjAddr: 0x10628, symBinAddr: 0x14628, symSize: 0x38 }
  - { offset: 0x22747, size: 0x8, addend: 0x0, symName: __Z10encode_ise12quant_methodjPKhPhj.cold.1, symObjAddr: 0x162F4, symBinAddr: 0x19C20, symSize: 0x28 }
  - { offset: 0x227AE, size: 0x8, addend: 0x0, symName: __Z10decode_ise12quant_methodjPKhPhj.cold.3, symObjAddr: 0x1636C, symBinAddr: 0x19C98, symSize: 0x28 }
  - { offset: 0x227C6, size: 0x8, addend: 0x0, symName: __Z10decode_ise12quant_methodjPKhPhj.cold.1, symObjAddr: 0x1631C, symBinAddr: 0x19C48, symSize: 0x28 }
  - { offset: 0x227DE, size: 0x8, addend: 0x0, symName: __Z10decode_ise12quant_methodjPKhPhj.cold.2, symObjAddr: 0x16344, symBinAddr: 0x19C70, symSize: 0x28 }
  - { offset: 0x23950, size: 0x8, addend: 0x0, symName: __Z30compute_ideal_endpoint_formatsRK14partition_infoRK11image_blockRK9endpointsPKaPKfjjjPA4_hPiP12quant_methodSG_R27compression_working_buffers.cold.8, symObjAddr: 0x164C4, symBinAddr: 0x19DB0, symSize: 0x28 }
  - { offset: 0x23994, size: 0x8, addend: 0x0, symName: __Z30compute_ideal_endpoint_formatsRK14partition_infoRK11image_blockRK9endpointsPKaPKfjjjPA4_hPiP12quant_methodSG_R27compression_working_buffers.cold.5, symObjAddr: 0x1644C, symBinAddr: 0x19D38, symSize: 0x28 }
  - { offset: 0x239AC, size: 0x8, addend: 0x0, symName: __Z30compute_ideal_endpoint_formatsRK14partition_infoRK11image_blockRK9endpointsPKaPKfjjjPA4_hPiP12quant_methodSG_R27compression_working_buffers.cold.6, symObjAddr: 0x16474, symBinAddr: 0x19D60, symSize: 0x28 }
  - { offset: 0x239C4, size: 0x8, addend: 0x0, symName: __Z30compute_ideal_endpoint_formatsRK14partition_infoRK11image_blockRK9endpointsPKaPKfjjjPA4_hPiP12quant_methodSG_R27compression_working_buffers.cold.9, symObjAddr: 0x164EC, symBinAddr: 0x19DD8, symSize: 0x28 }
  - { offset: 0x239DC, size: 0x8, addend: 0x0, symName: __Z30compute_ideal_endpoint_formatsRK14partition_infoRK11image_blockRK9endpointsPKaPKfjjjPA4_hPiP12quant_methodSG_R27compression_working_buffers.cold.4, symObjAddr: 0x16424, symBinAddr: 0x19D10, symSize: 0x28 }
  - { offset: 0x239F4, size: 0x8, addend: 0x0, symName: __Z30compute_ideal_endpoint_formatsRK14partition_infoRK11image_blockRK9endpointsPKaPKfjjjPA4_hPiP12quant_methodSG_R27compression_working_buffers.cold.3, symObjAddr: 0x163FC, symBinAddr: 0x19CE8, symSize: 0x28 }
  - { offset: 0x23A0C, size: 0x8, addend: 0x0, symName: __Z30compute_ideal_endpoint_formatsRK14partition_infoRK11image_blockRK9endpointsPKaPKfjjjPA4_hPiP12quant_methodSG_R27compression_working_buffers.cold.7, symObjAddr: 0x1649C, symBinAddr: 0x19D88, symSize: 0x28 }
  - { offset: 0x23A24, size: 0x8, addend: 0x0, symName: __Z30compute_ideal_endpoint_formatsRK14partition_infoRK11image_blockRK9endpointsPKaPKfjjjPA4_hPiP12quant_methodSG_R27compression_working_buffers.cold.2, symObjAddr: 0x163D4, symBinAddr: 0x19CC0, symSize: 0x28 }
  - { offset: 0x23A3C, size: 0x8, addend: 0x0, symName: __ZL42compute_angular_endpoints_for_quant_levelsjPKfjPfS1_, symObjAddr: 0x13598, symBinAddr: 0x17598, symSize: 0x4B8 }
  - { offset: 0x23E8F, size: 0x8, addend: 0x0, symName: __Z32compute_angular_endpoints_1planebRK21block_size_descriptorPKfjR27compression_working_buffers.cold.1, symObjAddr: 0x16514, symBinAddr: 0x19E00, symSize: 0x28 }
  - { offset: 0x23EA7, size: 0x8, addend: 0x0, symName: __Z32compute_angular_endpoints_1planebRK21block_size_descriptorPKfjR27compression_working_buffers.cold.3, symObjAddr: 0x16564, symBinAddr: 0x19E50, symSize: 0x28 }
  - { offset: 0x23EBF, size: 0x8, addend: 0x0, symName: __Z32compute_angular_endpoints_1planebRK21block_size_descriptorPKfjR27compression_working_buffers.cold.2, symObjAddr: 0x1653C, symBinAddr: 0x19E28, symSize: 0x28 }
  - { offset: 0x24118, size: 0x8, addend: 0x0, symName: __ZL42compute_angular_endpoints_for_quant_levelsjPKfjPfS1_.cold.1, symObjAddr: 0x1658C, symBinAddr: 0x19E78, symSize: 0x3C }
  - { offset: 0x24146, size: 0x8, addend: 0x0, symName: __ZL42compute_angular_endpoints_for_quant_levelsjPKfjPfS1_.cold.2, symObjAddr: 0x165C8, symBinAddr: 0x19EB4, symSize: 0x28 }
  - { offset: 0x24174, size: 0x8, addend: 0x0, symName: __Z33compute_angular_endpoints_2planesRK21block_size_descriptorPKfjR27compression_working_buffers.cold.1, symObjAddr: 0x165F0, symBinAddr: 0x19EDC, symSize: 0x28 }
  - { offset: 0x2418C, size: 0x8, addend: 0x0, symName: _AstcDecode, symObjAddr: 0x13C44, symBinAddr: 0x17C44, symSize: 0xF0 }
  - { offset: 0x24319, size: 0x8, addend: 0x0, symName: __ZL25realign_weights_decimated15astcenc_profileRK21block_size_descriptorRK11image_blockR25symbolic_compressed_block.cold.2, symObjAddr: 0x1663C, symBinAddr: 0x19F04, symSize: 0x28 }
  - { offset: 0x24345, size: 0x8, addend: 0x0, symName: __ZL25realign_weights_decimated15astcenc_profileRK21block_size_descriptorRK11image_blockR25symbolic_compressed_block.cold.5, symObjAddr: 0x166B4, symBinAddr: 0x19F7C, symSize: 0x28 }
  - { offset: 0x2435D, size: 0x8, addend: 0x0, symName: __ZL25realign_weights_decimated15astcenc_profileRK21block_size_descriptorRK11image_blockR25symbolic_compressed_block.cold.4, symObjAddr: 0x1668C, symBinAddr: 0x19F54, symSize: 0x28 }
  - { offset: 0x24375, size: 0x8, addend: 0x0, symName: __ZL25realign_weights_decimated15astcenc_profileRK21block_size_descriptorRK11image_blockR25symbolic_compressed_block.cold.3, symObjAddr: 0x16664, symBinAddr: 0x19F2C, symSize: 0x28 }
  - { offset: 0x2438D, size: 0x8, addend: 0x0, symName: __ZL27realign_weights_undecimated15astcenc_profileRK21block_size_descriptorRK11image_blockR25symbolic_compressed_block.cold.2, symObjAddr: 0x16700, symBinAddr: 0x19FA4, symSize: 0x28 }
  - { offset: 0x243B9, size: 0x8, addend: 0x0, symName: __ZL27realign_weights_undecimated15astcenc_profileRK21block_size_descriptorRK11image_blockR25symbolic_compressed_block.cold.3, symObjAddr: 0x16728, symBinAddr: 0x19FCC, symSize: 0x28 }
  - { offset: 0x24455, size: 0x8, addend: 0x0, symName: __ZNSt3__117bad_function_callD1Ev, symObjAddr: 0x14920, symBinAddr: 0x18920, symSize: 0x4 }
  - { offset: 0x24477, size: 0x8, addend: 0x0, symName: __ZNSt3__117bad_function_callD1Ev, symObjAddr: 0x14920, symBinAddr: 0x18920, symSize: 0x4 }
  - { offset: 0x244AB, size: 0x8, addend: 0x0, symName: __ZNSt3__117bad_function_callD0Ev, symObjAddr: 0x14924, symBinAddr: 0x18924, symSize: 0x14 }
  - { offset: 0x2450C, size: 0x8, addend: 0x0, symName: '__ZNSt3__110__function6__funcIZ22astcenc_compress_imageP15astcenc_contextP13astcenc_imagePK15astcenc_swizzlePhmjE3$_0NS_9allocatorISA_EEFjvEED1Ev', symObjAddr: 0x14938, symBinAddr: 0x18938, symSize: 0x4 }
  - { offset: 0x24537, size: 0x8, addend: 0x0, symName: '__ZNSt3__110__function6__funcIZ22astcenc_compress_imageP15astcenc_contextP13astcenc_imagePK15astcenc_swizzlePhmjE3$_0NS_9allocatorISA_EEFjvEED0Ev', symObjAddr: 0x1493C, symBinAddr: 0x1893C, symSize: 0x4 }
  - { offset: 0x24714, size: 0x8, addend: 0x0, symName: '__ZNKSt3__110__function6__funcIZ22astcenc_compress_imageP15astcenc_contextP13astcenc_imagePK15astcenc_swizzlePhmjE3$_0NS_9allocatorISA_EEFjvEE7__cloneEv', symObjAddr: 0x14940, symBinAddr: 0x18940, symSize: 0x40 }
  - { offset: 0x24A32, size: 0x8, addend: 0x0, symName: '__ZNKSt3__110__function6__funcIZ22astcenc_compress_imageP15astcenc_contextP13astcenc_imagePK15astcenc_swizzlePhmjE3$_0NS_9allocatorISA_EEFjvEE7__cloneEPNS0_6__baseISD_EE', symObjAddr: 0x14980, symBinAddr: 0x18980, symSize: 0x20 }
  - { offset: 0x24A68, size: 0x8, addend: 0x0, symName: '__ZNKSt3__110__function6__funcIZ22astcenc_compress_imageP15astcenc_contextP13astcenc_imagePK15astcenc_swizzlePhmjE3$_0NS_9allocatorISA_EEFjvEE7__cloneEPNS0_6__baseISD_EE', symObjAddr: 0x14980, symBinAddr: 0x18980, symSize: 0x20 }
  - { offset: 0x24A96, size: 0x8, addend: 0x0, symName: '__ZNKSt3__110__function6__funcIZ22astcenc_compress_imageP15astcenc_contextP13astcenc_imagePK15astcenc_swizzlePhmjE3$_0NS_9allocatorISA_EEFjvEE7__cloneEPNS0_6__baseISD_EE', symObjAddr: 0x14980, symBinAddr: 0x18980, symSize: 0x20 }
  - { offset: 0x24BAC, size: 0x8, addend: 0x0, symName: '__ZNSt3__110__function6__funcIZ22astcenc_compress_imageP15astcenc_contextP13astcenc_imagePK15astcenc_swizzlePhmjE3$_0NS_9allocatorISA_EEFjvEE7destroyEv', symObjAddr: 0x149A0, symBinAddr: 0x189A0, symSize: 0x4 }
  - { offset: 0x24BFB, size: 0x8, addend: 0x0, symName: '__ZNSt3__110__function6__funcIZ22astcenc_compress_imageP15astcenc_contextP13astcenc_imagePK15astcenc_swizzlePhmjE3$_0NS_9allocatorISA_EEFjvEE18destroy_deallocateEv', symObjAddr: 0x149A4, symBinAddr: 0x189A4, symSize: 0x4 }
  - { offset: 0x24C2E, size: 0x8, addend: 0x0, symName: '__ZNSt3__110__function6__funcIZ22astcenc_compress_imageP15astcenc_contextP13astcenc_imagePK15astcenc_swizzlePhmjE3$_0NS_9allocatorISA_EEFjvEE18destroy_deallocateEv', symObjAddr: 0x149A4, symBinAddr: 0x189A4, symSize: 0x4 }
  - { offset: 0x24C50, size: 0x8, addend: 0x0, symName: '__ZNSt3__110__function6__funcIZ22astcenc_compress_imageP15astcenc_contextP13astcenc_imagePK15astcenc_swizzlePhmjE3$_0NS_9allocatorISA_EEFjvEE18destroy_deallocateEv', symObjAddr: 0x149A4, symBinAddr: 0x189A4, symSize: 0x4 }
  - { offset: 0x24C7B, size: 0x8, addend: 0x0, symName: '__ZNSt3__110__function6__funcIZ22astcenc_compress_imageP15astcenc_contextP13astcenc_imagePK15astcenc_swizzlePhmjE3$_0NS_9allocatorISA_EEFjvEE18destroy_deallocateEv', symObjAddr: 0x149A4, symBinAddr: 0x189A4, symSize: 0x4 }
  - { offset: 0x24CA1, size: 0x8, addend: 0x0, symName: '__ZNSt3__110__function6__funcIZ22astcenc_compress_imageP15astcenc_contextP13astcenc_imagePK15astcenc_swizzlePhmjE3$_0NS_9allocatorISA_EEFjvEE18destroy_deallocateEv', symObjAddr: 0x149A4, symBinAddr: 0x189A4, symSize: 0x4 }
  - { offset: 0x24D2A, size: 0x8, addend: 0x0, symName: '__ZNSt3__110__function6__funcIZ22astcenc_compress_imageP15astcenc_contextP13astcenc_imagePK15astcenc_swizzlePhmjE3$_0NS_9allocatorISA_EEFjvEEclEv', symObjAddr: 0x149A8, symBinAddr: 0x189A8, symSize: 0x50 }
  - { offset: 0x24DD8, size: 0x8, addend: 0x0, symName: '__ZNKSt3__110__function6__funcIZ22astcenc_compress_imageP15astcenc_contextP13astcenc_imagePK15astcenc_swizzlePhmjE3$_0NS_9allocatorISA_EEFjvEE6targetERKSt9type_info', symObjAddr: 0x149F8, symBinAddr: 0x189F8, symSize: 0x3C }
  - { offset: 0x24E24, size: 0x8, addend: 0x0, symName: __ZNKSt9type_infoeqB8ne190102ERKS_, symObjAddr: 0x14A40, symBinAddr: 0x18A40, symSize: 0x4C }
  - { offset: 0x24EC0, size: 0x8, addend: 0x0, symName: '__ZNKSt3__110__function6__funcIZ22astcenc_compress_imageP15astcenc_contextP13astcenc_imagePK15astcenc_swizzlePhmjE3$_0NS_9allocatorISA_EEFjvEE11target_typeEv', symObjAddr: 0x14A34, symBinAddr: 0x18A34, symSize: 0xC }
  - { offset: 0x24F2B, size: 0x8, addend: 0x0, symName: '__ZNSt3__110__function6__funcIZ22astcenc_compress_imageP15astcenc_contextP13astcenc_imagePK15astcenc_swizzlePhmjE3$_1NS_9allocatorISA_EEFvvEED1Ev', symObjAddr: 0x14A8C, symBinAddr: 0x18A8C, symSize: 0x4 }
  - { offset: 0x24F56, size: 0x8, addend: 0x0, symName: '__ZNSt3__110__function6__funcIZ22astcenc_compress_imageP15astcenc_contextP13astcenc_imagePK15astcenc_swizzlePhmjE3$_1NS_9allocatorISA_EEFvvEED0Ev', symObjAddr: 0x14A90, symBinAddr: 0x18A90, symSize: 0x4 }
  - { offset: 0x25159, size: 0x8, addend: 0x0, symName: '__ZNKSt3__110__function6__funcIZ22astcenc_compress_imageP15astcenc_contextP13astcenc_imagePK15astcenc_swizzlePhmjE3$_1NS_9allocatorISA_EEFvvEE7__cloneEv', symObjAddr: 0x14A94, symBinAddr: 0x18A94, symSize: 0x34 }
  - { offset: 0x2544A, size: 0x8, addend: 0x0, symName: '__ZNKSt3__110__function6__funcIZ22astcenc_compress_imageP15astcenc_contextP13astcenc_imagePK15astcenc_swizzlePhmjE3$_1NS_9allocatorISA_EEFvvEE7__cloneEPNS0_6__baseISD_EE', symObjAddr: 0x14AC8, symBinAddr: 0x18AC8, symSize: 0x14 }
  - { offset: 0x25480, size: 0x8, addend: 0x0, symName: '__ZNKSt3__110__function6__funcIZ22astcenc_compress_imageP15astcenc_contextP13astcenc_imagePK15astcenc_swizzlePhmjE3$_1NS_9allocatorISA_EEFvvEE7__cloneEPNS0_6__baseISD_EE', symObjAddr: 0x14AC8, symBinAddr: 0x18AC8, symSize: 0x14 }
  - { offset: 0x254AE, size: 0x8, addend: 0x0, symName: '__ZNKSt3__110__function6__funcIZ22astcenc_compress_imageP15astcenc_contextP13astcenc_imagePK15astcenc_swizzlePhmjE3$_1NS_9allocatorISA_EEFvvEE7__cloneEPNS0_6__baseISD_EE', symObjAddr: 0x14AC8, symBinAddr: 0x18AC8, symSize: 0x14 }
  - { offset: 0x254DC, size: 0x8, addend: 0x0, symName: '__ZNKSt3__110__function6__funcIZ22astcenc_compress_imageP15astcenc_contextP13astcenc_imagePK15astcenc_swizzlePhmjE3$_1NS_9allocatorISA_EEFvvEE7__cloneEPNS0_6__baseISD_EE', symObjAddr: 0x14AC8, symBinAddr: 0x18AC8, symSize: 0x14 }
  - { offset: 0x254F1, size: 0x8, addend: 0x0, symName: '__ZNKSt3__110__function6__funcIZ22astcenc_compress_imageP15astcenc_contextP13astcenc_imagePK15astcenc_swizzlePhmjE3$_1NS_9allocatorISA_EEFvvEE7__cloneEPNS0_6__baseISD_EE', symObjAddr: 0x14AC8, symBinAddr: 0x18AC8, symSize: 0x14 }
  - { offset: 0x25505, size: 0x8, addend: 0x0, symName: '__ZNKSt3__110__function6__funcIZ22astcenc_compress_imageP15astcenc_contextP13astcenc_imagePK15astcenc_swizzlePhmjE3$_1NS_9allocatorISA_EEFvvEE7__cloneEPNS0_6__baseISD_EE', symObjAddr: 0x14AC8, symBinAddr: 0x18AC8, symSize: 0x14 }
  - { offset: 0x25519, size: 0x8, addend: 0x0, symName: '__ZNKSt3__110__function6__funcIZ22astcenc_compress_imageP15astcenc_contextP13astcenc_imagePK15astcenc_swizzlePhmjE3$_1NS_9allocatorISA_EEFvvEE7__cloneEPNS0_6__baseISD_EE', symObjAddr: 0x14AC8, symBinAddr: 0x18AC8, symSize: 0x14 }
  - { offset: 0x2552E, size: 0x8, addend: 0x0, symName: '__ZNKSt3__110__function6__funcIZ22astcenc_compress_imageP15astcenc_contextP13astcenc_imagePK15astcenc_swizzlePhmjE3$_1NS_9allocatorISA_EEFvvEE7__cloneEPNS0_6__baseISD_EE', symObjAddr: 0x14AC8, symBinAddr: 0x18AC8, symSize: 0x14 }
  - { offset: 0x25546, size: 0x8, addend: 0x0, symName: '__ZNSt3__110__function6__funcIZ22astcenc_compress_imageP15astcenc_contextP13astcenc_imagePK15astcenc_swizzlePhmjE3$_1NS_9allocatorISA_EEFvvEE7destroyEv', symObjAddr: 0x14ADC, symBinAddr: 0x18ADC, symSize: 0x4 }
  - { offset: 0x25595, size: 0x8, addend: 0x0, symName: '__ZNSt3__110__function6__funcIZ22astcenc_compress_imageP15astcenc_contextP13astcenc_imagePK15astcenc_swizzlePhmjE3$_1NS_9allocatorISA_EEFvvEE18destroy_deallocateEv', symObjAddr: 0x14AE0, symBinAddr: 0x18AE0, symSize: 0x4 }
  - { offset: 0x255C8, size: 0x8, addend: 0x0, symName: '__ZNSt3__110__function6__funcIZ22astcenc_compress_imageP15astcenc_contextP13astcenc_imagePK15astcenc_swizzlePhmjE3$_1NS_9allocatorISA_EEFvvEE18destroy_deallocateEv', symObjAddr: 0x14AE0, symBinAddr: 0x18AE0, symSize: 0x4 }
  - { offset: 0x255EA, size: 0x8, addend: 0x0, symName: '__ZNSt3__110__function6__funcIZ22astcenc_compress_imageP15astcenc_contextP13astcenc_imagePK15astcenc_swizzlePhmjE3$_1NS_9allocatorISA_EEFvvEE18destroy_deallocateEv', symObjAddr: 0x14AE0, symBinAddr: 0x18AE0, symSize: 0x4 }
  - { offset: 0x25615, size: 0x8, addend: 0x0, symName: '__ZNSt3__110__function6__funcIZ22astcenc_compress_imageP15astcenc_contextP13astcenc_imagePK15astcenc_swizzlePhmjE3$_1NS_9allocatorISA_EEFvvEE18destroy_deallocateEv', symObjAddr: 0x14AE0, symBinAddr: 0x18AE0, symSize: 0x4 }
  - { offset: 0x2563B, size: 0x8, addend: 0x0, symName: '__ZNSt3__110__function6__funcIZ22astcenc_compress_imageP15astcenc_contextP13astcenc_imagePK15astcenc_swizzlePhmjE3$_1NS_9allocatorISA_EEFvvEE18destroy_deallocateEv', symObjAddr: 0x14AE0, symBinAddr: 0x18AE0, symSize: 0x4 }
  - { offset: 0x256B8, size: 0x8, addend: 0x0, symName: '__ZNSt3__110__function6__funcIZ22astcenc_compress_imageP15astcenc_contextP13astcenc_imagePK15astcenc_swizzlePhmjE3$_1NS_9allocatorISA_EEFvvEEclEv', symObjAddr: 0x14AE4, symBinAddr: 0x18AE4, symSize: 0x34 }
  - { offset: 0x25758, size: 0x8, addend: 0x0, symName: '__ZNKSt3__110__function6__funcIZ22astcenc_compress_imageP15astcenc_contextP13astcenc_imagePK15astcenc_swizzlePhmjE3$_1NS_9allocatorISA_EEFvvEE6targetERKSt9type_info', symObjAddr: 0x14B18, symBinAddr: 0x18B18, symSize: 0x3C }
  - { offset: 0x257A4, size: 0x8, addend: 0x0, symName: '__ZNKSt3__110__function6__funcIZ22astcenc_compress_imageP15astcenc_contextP13astcenc_imagePK15astcenc_swizzlePhmjE3$_1NS_9allocatorISA_EEFvvEE11target_typeEv', symObjAddr: 0x14B54, symBinAddr: 0x18B54, symSize: 0xC }
  - { offset: 0x257C7, size: 0x8, addend: 0x0, symName: _OUTLINED_FUNCTION_0, symObjAddr: 0x16750, symBinAddr: 0x18B60, symSize: 0x8 }
  - { offset: 0x257DF, size: 0x8, addend: 0x0, symName: _OUTLINED_FUNCTION_1, symObjAddr: 0x16758, symBinAddr: 0x18B68, symSize: 0x8 }
...
